
FullProgram.elf:     file format elf32-littlearm

Sections:
Idx Name          Size      VMA       LMA       File off  Algn
  0 .isr_vector   0000018c  08000000  08000000  00001000  2**0
                  CONTENTS, ALLOC, LOAD, READONLY, DATA
  1 .text         000022d8  0800018c  0800018c  0000118c  2**2
                  CONTENTS, ALLOC, LOAD, READONLY, CODE
  2 .rodata       00000048  08002464  08002464  00003464  2**2
                  CONTENTS, ALLOC, LOAD, READONLY, DATA
  3 .ARM.extab    00000000  080024ac  080024ac  00004014  2**0
                  CONTENTS
  4 .ARM          00000000  080024ac  080024ac  00004014  2**0
                  CONTENTS
  5 .preinit_array 00000000  080024ac  080024ac  00004014  2**0
                  CONTENTS, ALLOC, LOAD, DATA
  6 .init_array   00000004  080024ac  080024ac  000034ac  2**2
                  CONTENTS, ALLOC, LOAD, READONLY, DATA
  7 .fini_array   00000004  080024b0  080024b0  000034b0  2**2
                  CONTENTS, ALLOC, LOAD, READONLY, DATA
  8 .data         00000014  20000000  080024b4  00004000  2**2
                  CONTENTS, ALLOC, LOAD, DATA
  9 .bss          000000e0  20000014  080024c8  00004014  2**2
                  ALLOC
 10 ._user_heap_stack 00000604  200000f4  080024c8  000040f4  2**0
                  ALLOC
 11 .ARM.attributes 00000030  00000000  00000000  00004014  2**0
                  CONTENTS, READONLY
 12 .comment      00000043  00000000  00000000  00004044  2**0
                  CONTENTS, READONLY
 13 .debug_frame  0000004c  00000000  00000000  00004088  2**2
                  CONTENTS, READONLY, DEBUGGING, OCTETS

Disassembly of section .text:

0800018c <__do_global_dtors_aux>:
 800018c:	b510      	push	{r4, lr}
 800018e:	4c05      	ldr	r4, [pc, #20]	@ (80001a4 <__do_global_dtors_aux+0x18>)
 8000190:	7823      	ldrb	r3, [r4, #0]
 8000192:	b933      	cbnz	r3, 80001a2 <__do_global_dtors_aux+0x16>
 8000194:	4b04      	ldr	r3, [pc, #16]	@ (80001a8 <__do_global_dtors_aux+0x1c>)
 8000196:	b113      	cbz	r3, 800019e <__do_global_dtors_aux+0x12>
 8000198:	4804      	ldr	r0, [pc, #16]	@ (80001ac <__do_global_dtors_aux+0x20>)
 800019a:	f3af 8000 	nop.w
 800019e:	2301      	movs	r3, #1
 80001a0:	7023      	strb	r3, [r4, #0]
 80001a2:	bd10      	pop	{r4, pc}
 80001a4:	20000014 	.word	0x20000014
 80001a8:	00000000 	.word	0x00000000
 80001ac:	0800244c 	.word	0x0800244c

080001b0 <frame_dummy>:
 80001b0:	b508      	push	{r3, lr}
 80001b2:	4b03      	ldr	r3, [pc, #12]	@ (80001c0 <frame_dummy+0x10>)
 80001b4:	b11b      	cbz	r3, 80001be <frame_dummy+0xe>
 80001b6:	4903      	ldr	r1, [pc, #12]	@ (80001c4 <frame_dummy+0x14>)
 80001b8:	4803      	ldr	r0, [pc, #12]	@ (80001c8 <frame_dummy+0x18>)
 80001ba:	f3af 8000 	nop.w
 80001be:	bd08      	pop	{r3, pc}
 80001c0:	00000000 	.word	0x00000000
 80001c4:	20000018 	.word	0x20000018
 80001c8:	0800244c 	.word	0x0800244c

080001cc <SystemClock_Config>:
 80001cc:	b500      	push	{lr}
 80001ce:	b097      	sub	sp, #92	@ 0x5c
 80001d0:	2244      	movs	r2, #68	@ 0x44
 80001d2:	2100      	movs	r1, #0
 80001d4:	a805      	add	r0, sp, #20
 80001d6:	f002 f90d 	bl	80023f4 <memset>
 80001da:	2214      	movs	r2, #20
 80001dc:	2100      	movs	r1, #0
 80001de:	4668      	mov	r0, sp
 80001e0:	f002 f908 	bl	80023f4 <memset>
 80001e4:	f44f 7000 	mov.w	r0, #512	@ 0x200
 80001e8:	f001 faea 	bl	80017c0 <HAL_PWREx_ControlVoltageScaling>
 80001ec:	b108      	cbz	r0, 80001f2 <SystemClock_Config+0x26>
 80001ee:	b672      	cpsid	i
 80001f0:	e7fe      	b.n	80001f0 <SystemClock_Config+0x24>
 80001f2:	2310      	movs	r3, #16
 80001f4:	9305      	str	r3, [sp, #20]
 80001f6:	2301      	movs	r3, #1
 80001f8:	e9cd 300b 	strd	r3, r0, [sp, #44]	@ 0x2c
 80001fc:	900f      	str	r0, [sp, #60]	@ 0x3c
 80001fe:	2360      	movs	r3, #96	@ 0x60
 8000200:	a805      	add	r0, sp, #20
 8000202:	930d      	str	r3, [sp, #52]	@ 0x34
 8000204:	f001 fbbe 	bl	8001984 <HAL_RCC_OscConfig>
 8000208:	4601      	mov	r1, r0
 800020a:	b108      	cbz	r0, 8000210 <SystemClock_Config+0x44>
 800020c:	b672      	cpsid	i
 800020e:	e7fe      	b.n	800020e <SystemClock_Config+0x42>
 8000210:	230f      	movs	r3, #15
 8000212:	e9cd 3000 	strd	r3, r0, [sp]
 8000216:	e9cd 0002 	strd	r0, r0, [sp, #8]
 800021a:	9004      	str	r0, [sp, #16]
 800021c:	4668      	mov	r0, sp
 800021e:	f001 fe53 	bl	8001ec8 <HAL_RCC_ClockConfig>
 8000222:	b108      	cbz	r0, 8000228 <SystemClock_Config+0x5c>
 8000224:	b672      	cpsid	i
 8000226:	e7fe      	b.n	8000226 <SystemClock_Config+0x5a>
 8000228:	b017      	add	sp, #92	@ 0x5c
 800022a:	f85d fb04 	ldr.w	pc, [sp], #4
	...

08000230 <NTP_Write_eeprom>:
 8000230:	b51f      	push	{r0, r1, r2, r3, r4, lr}
 8000232:	f88d 300b 	strb.w	r3, [sp, #11]
 8000236:	f89d 3018 	ldrb.w	r3, [sp, #24]
 800023a:	f88d 300c 	strb.w	r3, [sp, #12]
 800023e:	f89d 301c 	ldrb.w	r3, [sp, #28]
 8000242:	f88d 300d 	strb.w	r3, [sp, #13]
 8000246:	2302      	movs	r3, #2
 8000248:	f88d 0008 	strb.w	r0, [sp, #8]
 800024c:	f88d 1009 	strb.w	r1, [sp, #9]
 8000250:	f88d 200a 	strb.w	r2, [sp, #10]
 8000254:	9300      	str	r3, [sp, #0]
 8000256:	aa02      	add	r2, sp, #8
 8000258:	2306      	movs	r3, #6
 800025a:	21a8      	movs	r1, #168	@ 0xa8
 800025c:	4802      	ldr	r0, [pc, #8]	@ (8000268 <NTP_Write_eeprom+0x38>)
 800025e:	f001 f9af 	bl	80015c0 <HAL_I2C_Master_Transmit>
 8000262:	b005      	add	sp, #20
 8000264:	f85d fb04 	ldr.w	pc, [sp], #4
 8000268:	20000038 	.word	0x20000038

0800026c <main>:
 800026c:	e92d 47f0 	stmdb	sp!, {r4, r5, r6, r7, r8, r9, sl, lr}
 8000270:	b08c      	sub	sp, #48	@ 0x30
 8000272:	f000 fa5f 	bl	8000734 <HAL_Init>
 8000276:	f7ff ffa9 	bl	80001cc <SystemClock_Config>
 800027a:	4b9e      	ldr	r3, [pc, #632]	@ (80004f4 <main+0x288>)
 800027c:	4d9e      	ldr	r5, [pc, #632]	@ (80004f8 <main+0x28c>)
 800027e:	f04f 6200 	mov.w	r2, #134217728	@ 0x8000000
 8000282:	609a      	str	r2, [r3, #8]
 8000284:	2100      	movs	r1, #0
 8000286:	2214      	movs	r2, #20
 8000288:	a806      	add	r0, sp, #24
 800028a:	f002 f8b3 	bl	80023f4 <memset>
 800028e:	4b9b      	ldr	r3, [pc, #620]	@ (80004fc <main+0x290>)
 8000290:	489b      	ldr	r0, [pc, #620]	@ (8000500 <main+0x294>)
 8000292:	6cda      	ldr	r2, [r3, #76]	@ 0x4c
 8000294:	f042 0204 	orr.w	r2, r2, #4
 8000298:	64da      	str	r2, [r3, #76]	@ 0x4c
 800029a:	6cda      	ldr	r2, [r3, #76]	@ 0x4c
 800029c:	f002 0204 	and.w	r2, r2, #4
 80002a0:	9203      	str	r2, [sp, #12]
 80002a2:	9a03      	ldr	r2, [sp, #12]
 80002a4:	6cda      	ldr	r2, [r3, #76]	@ 0x4c
 80002a6:	f042 0202 	orr.w	r2, r2, #2
 80002aa:	64da      	str	r2, [r3, #76]	@ 0x4c
 80002ac:	6cda      	ldr	r2, [r3, #76]	@ 0x4c
 80002ae:	f002 0202 	and.w	r2, r2, #2
 80002b2:	9204      	str	r2, [sp, #16]
 80002b4:	9a04      	ldr	r2, [sp, #16]
 80002b6:	6cda      	ldr	r2, [r3, #76]	@ 0x4c
 80002b8:	f042 0201 	orr.w	r2, r2, #1
 80002bc:	64da      	str	r2, [r3, #76]	@ 0x4c
 80002be:	6cdb      	ldr	r3, [r3, #76]	@ 0x4c
 80002c0:	f003 0301 	and.w	r3, r3, #1
 80002c4:	9305      	str	r3, [sp, #20]
 80002c6:	2200      	movs	r2, #0
 80002c8:	f246 0101 	movw	r1, #24577	@ 0x6001
 80002cc:	9b05      	ldr	r3, [sp, #20]
 80002ce:	f000 ffdd 	bl	800128c <HAL_GPIO_WritePin>
 80002d2:	2200      	movs	r2, #0
 80002d4:	f44f 6100 	mov.w	r1, #2048	@ 0x800
 80002d8:	f04f 4090 	mov.w	r0, #1207959552	@ 0x48000000
 80002dc:	f000 ffd6 	bl	800128c <HAL_GPIO_WritePin>
 80002e0:	f44f 1304 	mov.w	r3, #2162688	@ 0x210000
 80002e4:	f44f 5000 	mov.w	r0, #8192	@ 0x2000
 80002e8:	2400      	movs	r4, #0
 80002ea:	e9cd 0306 	strd	r0, r3, [sp, #24]
 80002ee:	a906      	add	r1, sp, #24
 80002f0:	4884      	ldr	r0, [pc, #528]	@ (8000504 <main+0x298>)
 80002f2:	9408      	str	r4, [sp, #32]
 80002f4:	2601      	movs	r6, #1
 80002f6:	f000 ff05 	bl	8001104 <HAL_GPIO_Init>
 80002fa:	f246 0301 	movw	r3, #24577	@ 0x6001
 80002fe:	4880      	ldr	r0, [pc, #512]	@ (8000500 <main+0x294>)
 8000300:	a906      	add	r1, sp, #24
 8000302:	e9cd 3606 	strd	r3, r6, [sp, #24]
 8000306:	e9cd 4408 	strd	r4, r4, [sp, #32]
 800030a:	f44f 6700 	mov.w	r7, #2048	@ 0x800
 800030e:	f000 fef9 	bl	8001104 <HAL_GPIO_Init>
 8000312:	a906      	add	r1, sp, #24
 8000314:	f04f 4090 	mov.w	r0, #1207959552	@ 0x48000000
 8000318:	e9cd 7606 	strd	r7, r6, [sp, #24]
 800031c:	e9cd 4408 	strd	r4, r4, [sp, #32]
 8000320:	f000 fef0 	bl	8001104 <HAL_GPIO_Init>
 8000324:	4621      	mov	r1, r4
 8000326:	4622      	mov	r2, r4
 8000328:	2028      	movs	r0, #40	@ 0x28
 800032a:	f000 fe97 	bl	800105c <HAL_NVIC_SetPriority>
 800032e:	2028      	movs	r0, #40	@ 0x28
 8000330:	f000 fec6 	bl	80010c0 <HAL_NVIC_EnableIRQ>
 8000334:	f8df c1f4 	ldr.w	ip, [pc, #500]	@ 800052c <main+0x2c0>
 8000338:	4b73      	ldr	r3, [pc, #460]	@ (8000508 <main+0x29c>)
 800033a:	622c      	str	r4, [r5, #32]
 800033c:	4628      	mov	r0, r5
 800033e:	e9c5 c300 	strd	ip, r3, [r5]
 8000342:	e9c5 4602 	strd	r4, r6, [r5, #8]
 8000346:	e9c5 4404 	strd	r4, r4, [r5, #16]
 800034a:	e9c5 4406 	strd	r4, r4, [r5, #24]
 800034e:	f001 f8e2 	bl	8001516 <HAL_I2C_Init>
 8000352:	4601      	mov	r1, r0
 8000354:	b108      	cbz	r0, 800035a <main+0xee>
 8000356:	b672      	cpsid	i
 8000358:	e7fe      	b.n	8000358 <main+0xec>
 800035a:	4628      	mov	r0, r5
 800035c:	f001 f9dc 	bl	8001718 <HAL_I2CEx_ConfigAnalogFilter>
 8000360:	4601      	mov	r1, r0
 8000362:	b108      	cbz	r0, 8000368 <main+0xfc>
 8000364:	b672      	cpsid	i
 8000366:	e7fe      	b.n	8000366 <main+0xfa>
 8000368:	4628      	mov	r0, r5
 800036a:	f001 f9fb 	bl	8001764 <HAL_I2CEx_ConfigDigitalFilter>
 800036e:	4605      	mov	r5, r0
 8000370:	b108      	cbz	r0, 8000376 <main+0x10a>
 8000372:	b672      	cpsid	i
 8000374:	e7fe      	b.n	8000374 <main+0x108>
 8000376:	2218      	movs	r2, #24
 8000378:	4c64      	ldr	r4, [pc, #400]	@ (800050c <main+0x2a0>)
 800037a:	4601      	mov	r1, r0
 800037c:	eb0d 0002 	add.w	r0, sp, r2
 8000380:	f002 f838 	bl	80023f4 <memset>
 8000384:	4962      	ldr	r1, [pc, #392]	@ (8000510 <main+0x2a4>)
 8000386:	6125      	str	r5, [r4, #16]
 8000388:	f44f 1380 	mov.w	r3, #1048576	@ 0x100000
 800038c:	f04f 0804 	mov.w	r8, #4
 8000390:	4620      	mov	r0, r4
 8000392:	e9c4 1300 	strd	r1, r3, [r4]
 8000396:	e9c4 5502 	strd	r5, r5, [r4, #8]
 800039a:	e9c4 550a 	strd	r5, r5, [r4, #40]	@ 0x28
 800039e:	f8c4 8014 	str.w	r8, [r4, #20]
 80003a2:	8325      	strh	r5, [r4, #24]
 80003a4:	61e6      	str	r6, [r4, #28]
 80003a6:	f884 5020 	strb.w	r5, [r4, #32]
 80003aa:	f884 5030 	strb.w	r5, [r4, #48]	@ 0x30
 80003ae:	6365      	str	r5, [r4, #52]	@ 0x34
 80003b0:	f884 5038 	strb.w	r5, [r4, #56]	@ 0x38
 80003b4:	f000 fa16 	bl	80007e4 <HAL_ADC_Init>
 80003b8:	b108      	cbz	r0, 80003be <main+0x152>
 80003ba:	b672      	cpsid	i
 80003bc:	e7fe      	b.n	80003bc <main+0x150>
 80003be:	4a55      	ldr	r2, [pc, #340]	@ (8000514 <main+0x2a8>)
 80003c0:	9008      	str	r0, [sp, #32]
 80003c2:	2306      	movs	r3, #6
 80003c4:	e9cd 2306 	strd	r2, r3, [sp, #24]
 80003c8:	900b      	str	r0, [sp, #44]	@ 0x2c
 80003ca:	237f      	movs	r3, #127	@ 0x7f
 80003cc:	a906      	add	r1, sp, #24
 80003ce:	4620      	mov	r0, r4
 80003d0:	e9cd 3809 	strd	r3, r8, [sp, #36]	@ 0x24
 80003d4:	f000 fb28 	bl	8000a28 <HAL_ADC_ConfigChannel>
 80003d8:	4605      	mov	r5, r0
 80003da:	b108      	cbz	r0, 80003e0 <main+0x174>
 80003dc:	b672      	cpsid	i
 80003de:	e7fe      	b.n	80003de <main+0x172>
 80003e0:	2032      	movs	r0, #50	@ 0x32
 80003e2:	f000 f9c9 	bl	8000778 <HAL_Delay>
 80003e6:	4639      	mov	r1, r7
 80003e8:	4632      	mov	r2, r6
 80003ea:	f04f 4090 	mov.w	r0, #1207959552	@ 0x48000000
 80003ee:	f000 ff4d 	bl	800128c <HAL_GPIO_WritePin>
 80003f2:	462b      	mov	r3, r5
 80003f4:	e9cd 6500 	strd	r6, r5, [sp]
 80003f8:	2205      	movs	r2, #5
 80003fa:	213d      	movs	r1, #61	@ 0x3d
 80003fc:	2010      	movs	r0, #16
 80003fe:	f7ff ff17 	bl	8000230 <NTP_Write_eeprom>
 8000402:	462a      	mov	r2, r5
 8000404:	4639      	mov	r1, r7
 8000406:	f04f 4090 	mov.w	r0, #1207959552	@ 0x48000000
 800040a:	f000 ff3f 	bl	800128c <HAL_GPIO_WritePin>
 800040e:	2032      	movs	r0, #50	@ 0x32
 8000410:	f000 f9b2 	bl	8000778 <HAL_Delay>
 8000414:	4b40      	ldr	r3, [pc, #256]	@ (8000518 <main+0x2ac>)
 8000416:	4d3a      	ldr	r5, [pc, #232]	@ (8000500 <main+0x294>)
 8000418:	f8b3 70aa 	ldrh.w	r7, [r3, #170]	@ 0xaa
 800041c:	f640 33b8 	movw	r3, #3000	@ 0xbb8
 8000420:	435f      	muls	r7, r3
 8000422:	2201      	movs	r2, #1
 8000424:	f44f 4180 	mov.w	r1, #16384	@ 0x4000
 8000428:	4628      	mov	r0, r5
 800042a:	f000 ff2f 	bl	800128c <HAL_GPIO_WritePin>
 800042e:	2201      	movs	r2, #1
 8000430:	4611      	mov	r1, r2
 8000432:	4628      	mov	r0, r5
 8000434:	f000 ff2a 	bl	800128c <HAL_GPIO_WritePin>
 8000438:	2032      	movs	r0, #50	@ 0x32
 800043a:	f000 f99d 	bl	8000778 <HAL_Delay>
 800043e:	4620      	mov	r0, r4
 8000440:	f000 fd66 	bl	8000f10 <HAL_ADC_Start>
 8000444:	f44f 61fa 	mov.w	r1, #2000	@ 0x7d0
 8000448:	4620      	mov	r0, r4
 800044a:	f000 fa99 	bl	8000980 <HAL_ADC_PollForConversion>
 800044e:	2800      	cmp	r0, #0
 8000450:	d14d      	bne.n	80004ee <main+0x282>
 8000452:	4620      	mov	r0, r4
 8000454:	f000 fae4 	bl	8000a20 <HAL_ADC_GetValue>
 8000458:	4b30      	ldr	r3, [pc, #192]	@ (800051c <main+0x2b0>)
 800045a:	6018      	str	r0, [r3, #0]
 800045c:	2800      	cmp	r0, #0
 800045e:	d046      	beq.n	80004ee <main+0x282>
 8000460:	fbb7 f0f0 	udiv	r0, r7, r0
 8000464:	4e2e      	ldr	r6, [pc, #184]	@ (8000520 <main+0x2b4>)
 8000466:	f8df 80c8 	ldr.w	r8, [pc, #200]	@ 8000530 <main+0x2c4>
 800046a:	6030      	str	r0, [r6, #0]
 800046c:	4620      	mov	r0, r4
 800046e:	f000 fdc4 	bl	8000ffa <HAL_ADC_Stop>
 8000472:	4628      	mov	r0, r5
 8000474:	2200      	movs	r2, #0
 8000476:	2101      	movs	r1, #1
 8000478:	f000 ff08 	bl	800128c <HAL_GPIO_WritePin>
 800047c:	6833      	ldr	r3, [r6, #0]
 800047e:	4a29      	ldr	r2, [pc, #164]	@ (8000524 <main+0x2b8>)
 8000480:	f8df 90b0 	ldr.w	r9, [pc, #176]	@ 8000534 <main+0x2c8>
 8000484:	f8df a0b0 	ldr.w	sl, [pc, #176]	@ 8000538 <main+0x2cc>
 8000488:	4e27      	ldr	r6, [pc, #156]	@ (8000528 <main+0x2bc>)
 800048a:	f88a 3000 	strb.w	r3, [sl]
 800048e:	0e19      	lsrs	r1, r3, #24
 8000490:	7011      	strb	r1, [r2, #0]
 8000492:	0c1a      	lsrs	r2, r3, #16
 8000494:	f888 2000 	strb.w	r2, [r8]
 8000498:	0a1a      	lsrs	r2, r3, #8
 800049a:	f889 2000 	strb.w	r2, [r9]
 800049e:	f44f 6100 	mov.w	r1, #2048	@ 0x800
 80004a2:	2201      	movs	r2, #1
 80004a4:	f04f 4090 	mov.w	r0, #1207959552	@ 0x48000000
 80004a8:	f000 fef0 	bl	800128c <HAL_GPIO_WritePin>
 80004ac:	f89a 3000 	ldrb.w	r3, [sl]
 80004b0:	9301      	str	r3, [sp, #4]
 80004b2:	f899 3000 	ldrb.w	r3, [r9]
 80004b6:	9300      	str	r3, [sp, #0]
 80004b8:	f898 3000 	ldrb.w	r3, [r8]
 80004bc:	7831      	ldrb	r1, [r6, #0]
 80004be:	22cc      	movs	r2, #204	@ 0xcc
 80004c0:	2000      	movs	r0, #0
 80004c2:	f7ff feb5 	bl	8000230 <NTP_Write_eeprom>
 80004c6:	7833      	ldrb	r3, [r6, #0]
 80004c8:	2200      	movs	r2, #0
 80004ca:	3301      	adds	r3, #1
 80004cc:	f44f 4180 	mov.w	r1, #16384	@ 0x4000
 80004d0:	4628      	mov	r0, r5
 80004d2:	7033      	strb	r3, [r6, #0]
 80004d4:	f000 feda 	bl	800128c <HAL_GPIO_WritePin>
 80004d8:	f000 f962 	bl	80007a0 <HAL_SuspendTick>
 80004dc:	2001      	movs	r0, #1
 80004de:	f001 f9a5 	bl	800182c <HAL_PWREx_EnterSTOP2Mode>
 80004e2:	f000 f964 	bl	80007ae <HAL_ResumeTick>
 80004e6:	4620      	mov	r0, r4
 80004e8:	f000 f844 	bl	8000574 <HAL_ADC_MspInit>
 80004ec:	e799      	b.n	8000422 <main+0x1b6>
 80004ee:	2000      	movs	r0, #0
 80004f0:	e7b8      	b.n	8000464 <main+0x1f8>
 80004f2:	bf00      	nop
 80004f4:	e000ed00 	.word	0xe000ed00
 80004f8:	20000038 	.word	0x20000038
 80004fc:	40021000 	.word	0x40021000
 8000500:	48000400 	.word	0x48000400
 8000504:	48000800 	.word	0x48000800
 8000508:	00100d14 	.word	0x00100d14
 800050c:	2000008c 	.word	0x2000008c
 8000510:	50040000 	.word	0x50040000
 8000514:	80000001 	.word	0x80000001
 8000518:	1fff7500 	.word	0x1fff7500
 800051c:	20000004 	.word	0x20000004
 8000520:	20000034 	.word	0x20000034
 8000524:	20000032 	.word	0x20000032
 8000528:	20000033 	.word	0x20000033
 800052c:	40005400 	.word	0x40005400
 8000530:	20000031 	.word	0x20000031
 8000534:	20000030 	.word	0x20000030
 8000538:	20000000 	.word	0x20000000

0800053c <HAL_GPIO_EXTI_Callback>:
 800053c:	4770      	bx	lr

0800053e <Error_Handler>:
 800053e:	b672      	cpsid	i
 8000540:	e7fe      	b.n	8000540 <Error_Handler+0x2>
	...

08000544 <HAL_MspInit>:
 8000544:	4b0a      	ldr	r3, [pc, #40]	@ (8000570 <HAL_MspInit+0x2c>)
 8000546:	6e1a      	ldr	r2, [r3, #96]	@ 0x60
 8000548:	f042 0201 	orr.w	r2, r2, #1
 800054c:	661a      	str	r2, [r3, #96]	@ 0x60
 800054e:	6e1a      	ldr	r2, [r3, #96]	@ 0x60
 8000550:	b082      	sub	sp, #8
 8000552:	f002 0201 	and.w	r2, r2, #1
 8000556:	9200      	str	r2, [sp, #0]
 8000558:	9a00      	ldr	r2, [sp, #0]
 800055a:	6d9a      	ldr	r2, [r3, #88]	@ 0x58
 800055c:	f042 5280 	orr.w	r2, r2, #268435456	@ 0x10000000
 8000560:	659a      	str	r2, [r3, #88]	@ 0x58
 8000562:	6d9b      	ldr	r3, [r3, #88]	@ 0x58
 8000564:	f003 5380 	and.w	r3, r3, #268435456	@ 0x10000000
 8000568:	9301      	str	r3, [sp, #4]
 800056a:	9b01      	ldr	r3, [sp, #4]
 800056c:	b002      	add	sp, #8
 800056e:	4770      	bx	lr
 8000570:	40021000 	.word	0x40021000

08000574 <HAL_ADC_MspInit>:
 8000574:	b510      	push	{r4, lr}
 8000576:	4604      	mov	r4, r0
 8000578:	b098      	sub	sp, #96	@ 0x60
 800057a:	225c      	movs	r2, #92	@ 0x5c
 800057c:	2100      	movs	r1, #0
 800057e:	a801      	add	r0, sp, #4
 8000580:	f001 ff38 	bl	80023f4 <memset>
 8000584:	6822      	ldr	r2, [r4, #0]
 8000586:	4b14      	ldr	r3, [pc, #80]	@ (80005d8 <HAL_ADC_MspInit+0x64>)
 8000588:	429a      	cmp	r2, r3
 800058a:	d122      	bne.n	80005d2 <HAL_ADC_MspInit+0x5e>
 800058c:	f44f 4380 	mov.w	r3, #16384	@ 0x4000
 8000590:	9301      	str	r3, [sp, #4]
 8000592:	f04f 5380 	mov.w	r3, #268435456	@ 0x10000000
 8000596:	9315      	str	r3, [sp, #84]	@ 0x54
 8000598:	2301      	movs	r3, #1
 800059a:	2010      	movs	r0, #16
 800059c:	e9cd 3302 	strd	r3, r3, [sp, #8]
 80005a0:	2307      	movs	r3, #7
 80005a2:	e9cd 0304 	strd	r0, r3, [sp, #16]
 80005a6:	2302      	movs	r3, #2
 80005a8:	e9cd 3306 	strd	r3, r3, [sp, #24]
 80005ac:	a801      	add	r0, sp, #4
 80005ae:	f04f 7380 	mov.w	r3, #16777216	@ 0x1000000
 80005b2:	9308      	str	r3, [sp, #32]
 80005b4:	f001 fdb8 	bl	8002128 <HAL_RCCEx_PeriphCLKConfig>
 80005b8:	b108      	cbz	r0, 80005be <HAL_ADC_MspInit+0x4a>
 80005ba:	f7ff ffc0 	bl	800053e <Error_Handler>
 80005be:	4b07      	ldr	r3, [pc, #28]	@ (80005dc <HAL_ADC_MspInit+0x68>)
 80005c0:	6cda      	ldr	r2, [r3, #76]	@ 0x4c
 80005c2:	f442 5200 	orr.w	r2, r2, #8192	@ 0x2000
 80005c6:	64da      	str	r2, [r3, #76]	@ 0x4c
 80005c8:	6cdb      	ldr	r3, [r3, #76]	@ 0x4c
 80005ca:	f403 5300 	and.w	r3, r3, #8192	@ 0x2000
 80005ce:	9300      	str	r3, [sp, #0]
 80005d0:	9b00      	ldr	r3, [sp, #0]
 80005d2:	b018      	add	sp, #96	@ 0x60
 80005d4:	bd10      	pop	{r4, pc}
 80005d6:	bf00      	nop
 80005d8:	50040000 	.word	0x50040000
 80005dc:	40021000 	.word	0x40021000

080005e0 <HAL_I2C_MspInit>:
 80005e0:	b510      	push	{r4, lr}
 80005e2:	b09e      	sub	sp, #120	@ 0x78
 80005e4:	4604      	mov	r4, r0
 80005e6:	2214      	movs	r2, #20
 80005e8:	2100      	movs	r1, #0
 80005ea:	a802      	add	r0, sp, #8
 80005ec:	f001 ff02 	bl	80023f4 <memset>
 80005f0:	225c      	movs	r2, #92	@ 0x5c
 80005f2:	2100      	movs	r1, #0
 80005f4:	a807      	add	r0, sp, #28
 80005f6:	f001 fefd 	bl	80023f4 <memset>
 80005fa:	6822      	ldr	r2, [r4, #0]
 80005fc:	4b17      	ldr	r3, [pc, #92]	@ (800065c <HAL_I2C_MspInit+0x7c>)
 80005fe:	429a      	cmp	r2, r3
 8000600:	d12a      	bne.n	8000658 <HAL_I2C_MspInit+0x78>
 8000602:	2340      	movs	r3, #64	@ 0x40
 8000604:	a807      	add	r0, sp, #28
 8000606:	9307      	str	r3, [sp, #28]
 8000608:	f001 fd8e 	bl	8002128 <HAL_RCCEx_PeriphCLKConfig>
 800060c:	b108      	cbz	r0, 8000612 <HAL_I2C_MspInit+0x32>
 800060e:	f7ff ff96 	bl	800053e <Error_Handler>
 8000612:	4c13      	ldr	r4, [pc, #76]	@ (8000660 <HAL_I2C_MspInit+0x80>)
 8000614:	6ce3      	ldr	r3, [r4, #76]	@ 0x4c
 8000616:	f043 0301 	orr.w	r3, r3, #1
 800061a:	64e3      	str	r3, [r4, #76]	@ 0x4c
 800061c:	6ce3      	ldr	r3, [r4, #76]	@ 0x4c
 800061e:	f003 0301 	and.w	r3, r3, #1
 8000622:	9300      	str	r3, [sp, #0]
 8000624:	9b00      	ldr	r3, [sp, #0]
 8000626:	f44f 62c0 	mov.w	r2, #1536	@ 0x600
 800062a:	2312      	movs	r3, #18
 800062c:	e9cd 2302 	strd	r2, r3, [sp, #8]
 8000630:	2100      	movs	r1, #0
 8000632:	2303      	movs	r3, #3
 8000634:	e9cd 1304 	strd	r1, r3, [sp, #16]
 8000638:	f04f 4090 	mov.w	r0, #1207959552	@ 0x48000000
 800063c:	2304      	movs	r3, #4
 800063e:	a902      	add	r1, sp, #8
 8000640:	9306      	str	r3, [sp, #24]
 8000642:	f000 fd5f 	bl	8001104 <HAL_GPIO_Init>
 8000646:	6da3      	ldr	r3, [r4, #88]	@ 0x58
 8000648:	f443 1300 	orr.w	r3, r3, #2097152	@ 0x200000
 800064c:	65a3      	str	r3, [r4, #88]	@ 0x58
 800064e:	6da3      	ldr	r3, [r4, #88]	@ 0x58
 8000650:	f403 1300 	and.w	r3, r3, #2097152	@ 0x200000
 8000654:	9301      	str	r3, [sp, #4]
 8000656:	9b01      	ldr	r3, [sp, #4]
 8000658:	b01e      	add	sp, #120	@ 0x78
 800065a:	bd10      	pop	{r4, pc}
 800065c:	40005400 	.word	0x40005400
 8000660:	40021000 	.word	0x40021000

08000664 <NMI_Handler>:
 8000664:	e7fe      	b.n	8000664 <NMI_Handler>

08000666 <HardFault_Handler>:
 8000666:	e7fe      	b.n	8000666 <HardFault_Handler>

08000668 <MemManage_Handler>:
 8000668:	e7fe      	b.n	8000668 <MemManage_Handler>

0800066a <BusFault_Handler>:
 800066a:	e7fe      	b.n	800066a <BusFault_Handler>

0800066c <UsageFault_Handler>:
 800066c:	e7fe      	b.n	800066c <UsageFault_Handler>

0800066e <SVC_Handler>:
 800066e:	4770      	bx	lr

08000670 <DebugMon_Handler>:
 8000670:	4770      	bx	lr

08000672 <PendSV_Handler>:
 8000672:	4770      	bx	lr

08000674 <SysTick_Handler>:
 8000674:	f000 b86e 	b.w	8000754 <HAL_IncTick>

08000678 <EXTI15_10_IRQHandler>:
 8000678:	f44f 5000 	mov.w	r0, #8192	@ 0x2000
 800067c:	f000 be0c 	b.w	8001298 <HAL_GPIO_EXTI_IRQHandler>

08000680 <SystemInit>:
 8000680:	4a03      	ldr	r2, [pc, #12]	@ (8000690 <SystemInit+0x10>)
 8000682:	f8d2 3088 	ldr.w	r3, [r2, #136]	@ 0x88
 8000686:	f443 0370 	orr.w	r3, r3, #15728640	@ 0xf00000
 800068a:	f8c2 3088 	str.w	r3, [r2, #136]	@ 0x88
 800068e:	4770      	bx	lr
 8000690:	e000ed00 	.word	0xe000ed00

08000694 <Reset_Handler>:
 8000694:	f8df d034 	ldr.w	sp, [pc, #52]	@ 80006cc <LoopForever+0x2>
 8000698:	f7ff fff2 	bl	8000680 <SystemInit>
 800069c:	480c      	ldr	r0, [pc, #48]	@ (80006d0 <LoopForever+0x6>)
 800069e:	490d      	ldr	r1, [pc, #52]	@ (80006d4 <LoopForever+0xa>)
 80006a0:	4a0d      	ldr	r2, [pc, #52]	@ (80006d8 <LoopForever+0xe>)
 80006a2:	2300      	movs	r3, #0
 80006a4:	e002      	b.n	80006ac <LoopCopyDataInit>

080006a6 <CopyDataInit>:
 80006a6:	58d4      	ldr	r4, [r2, r3]
 80006a8:	50c4      	str	r4, [r0, r3]
 80006aa:	3304      	adds	r3, #4

080006ac <LoopCopyDataInit>:
 80006ac:	18c4      	adds	r4, r0, r3
 80006ae:	428c      	cmp	r4, r1
 80006b0:	d3f9      	bcc.n	80006a6 <CopyDataInit>
 80006b2:	4a0a      	ldr	r2, [pc, #40]	@ (80006dc <LoopForever+0x12>)
 80006b4:	4c0a      	ldr	r4, [pc, #40]	@ (80006e0 <LoopForever+0x16>)
 80006b6:	2300      	movs	r3, #0
 80006b8:	e001      	b.n	80006be <LoopFillZerobss>

080006ba <FillZerobss>:
 80006ba:	6013      	str	r3, [r2, #0]
 80006bc:	3204      	adds	r2, #4

080006be <LoopFillZerobss>:
 80006be:	42a2      	cmp	r2, r4
 80006c0:	d3fb      	bcc.n	80006ba <FillZerobss>
 80006c2:	f001 fe9f 	bl	8002404 <__libc_init_array>
 80006c6:	f7ff fdd1 	bl	800026c <main>

080006ca <LoopForever>:
 80006ca:	e7fe      	b.n	80006ca <LoopForever>
 80006cc:	2000c000 	.word	0x2000c000
 80006d0:	20000000 	.word	0x20000000
 80006d4:	20000014 	.word	0x20000014
 80006d8:	080024b4 	.word	0x080024b4
 80006dc:	20000014 	.word	0x20000014
 80006e0:	200000f4 	.word	0x200000f4

080006e4 <ADC1_IRQHandler>:
 80006e4:	e7fe      	b.n	80006e4 <ADC1_IRQHandler>
	...

080006e8 <HAL_InitTick>:
 80006e8:	b538      	push	{r3, r4, r5, lr}
 80006ea:	4b0f      	ldr	r3, [pc, #60]	@ (8000728 <HAL_InitTick+0x40>)
 80006ec:	781a      	ldrb	r2, [r3, #0]
 80006ee:	4605      	mov	r5, r0
 80006f0:	b90a      	cbnz	r2, 80006f6 <HAL_InitTick+0xe>
 80006f2:	2001      	movs	r0, #1
 80006f4:	bd38      	pop	{r3, r4, r5, pc}
 80006f6:	f44f 737a 	mov.w	r3, #1000	@ 0x3e8
 80006fa:	fbb3 f3f2 	udiv	r3, r3, r2
 80006fe:	4a0b      	ldr	r2, [pc, #44]	@ (800072c <HAL_InitTick+0x44>)
 8000700:	6810      	ldr	r0, [r2, #0]
 8000702:	fbb0 f0f3 	udiv	r0, r0, r3
 8000706:	f000 fce9 	bl	80010dc <HAL_SYSTICK_Config>
 800070a:	4604      	mov	r4, r0
 800070c:	2800      	cmp	r0, #0
 800070e:	d1f0      	bne.n	80006f2 <HAL_InitTick+0xa>
 8000710:	2d0f      	cmp	r5, #15
 8000712:	d8ee      	bhi.n	80006f2 <HAL_InitTick+0xa>
 8000714:	4602      	mov	r2, r0
 8000716:	4629      	mov	r1, r5
 8000718:	f04f 30ff 	mov.w	r0, #4294967295
 800071c:	f000 fc9e 	bl	800105c <HAL_NVIC_SetPriority>
 8000720:	4b03      	ldr	r3, [pc, #12]	@ (8000730 <HAL_InitTick+0x48>)
 8000722:	4620      	mov	r0, r4
 8000724:	601d      	str	r5, [r3, #0]
 8000726:	e7e5      	b.n	80006f4 <HAL_InitTick+0xc>
 8000728:	2000000c 	.word	0x2000000c
 800072c:	20000008 	.word	0x20000008
 8000730:	20000010 	.word	0x20000010

08000734 <HAL_Init>:
 8000734:	b510      	push	{r4, lr}
 8000736:	2003      	movs	r0, #3
 8000738:	f000 fc7e 	bl	8001038 <HAL_NVIC_SetPriorityGrouping>
 800073c:	200f      	movs	r0, #15
 800073e:	f7ff ffd3 	bl	80006e8 <HAL_InitTick>
 8000742:	4604      	mov	r4, r0
 8000744:	b918      	cbnz	r0, 800074e <HAL_Init+0x1a>
 8000746:	f7ff fefd 	bl	8000544 <HAL_MspInit>
 800074a:	4620      	mov	r0, r4
 800074c:	bd10      	pop	{r4, pc}
 800074e:	2401      	movs	r4, #1
 8000750:	e7fb      	b.n	800074a <HAL_Init+0x16>
	...

08000754 <HAL_IncTick>:
 8000754:	4a03      	ldr	r2, [pc, #12]	@ (8000764 <HAL_IncTick+0x10>)
 8000756:	4b04      	ldr	r3, [pc, #16]	@ (8000768 <HAL_IncTick+0x14>)
 8000758:	6811      	ldr	r1, [r2, #0]
 800075a:	781b      	ldrb	r3, [r3, #0]
 800075c:	440b      	add	r3, r1
 800075e:	6013      	str	r3, [r2, #0]
 8000760:	4770      	bx	lr
 8000762:	bf00      	nop
 8000764:	200000f0 	.word	0x200000f0
 8000768:	2000000c 	.word	0x2000000c

0800076c <HAL_GetTick>:
 800076c:	4b01      	ldr	r3, [pc, #4]	@ (8000774 <HAL_GetTick+0x8>)
 800076e:	6818      	ldr	r0, [r3, #0]
 8000770:	4770      	bx	lr
 8000772:	bf00      	nop
 8000774:	200000f0 	.word	0x200000f0

08000778 <HAL_Delay>:
 8000778:	b538      	push	{r3, r4, r5, lr}
 800077a:	4604      	mov	r4, r0
 800077c:	f7ff fff6 	bl	800076c <HAL_GetTick>
 8000780:	1c63      	adds	r3, r4, #1
 8000782:	bf1c      	itt	ne
 8000784:	4b05      	ldrne	r3, [pc, #20]	@ (800079c <HAL_Delay+0x24>)
 8000786:	781b      	ldrbne	r3, [r3, #0]
 8000788:	4605      	mov	r5, r0
 800078a:	bf18      	it	ne
 800078c:	18e4      	addne	r4, r4, r3
 800078e:	f7ff ffed 	bl	800076c <HAL_GetTick>
 8000792:	1b43      	subs	r3, r0, r5
 8000794:	42a3      	cmp	r3, r4
 8000796:	d3fa      	bcc.n	800078e <HAL_Delay+0x16>
 8000798:	bd38      	pop	{r3, r4, r5, pc}
 800079a:	bf00      	nop
 800079c:	2000000c 	.word	0x2000000c

080007a0 <HAL_SuspendTick>:
 80007a0:	f04f 22e0 	mov.w	r2, #3758153728	@ 0xe000e000
 80007a4:	6913      	ldr	r3, [r2, #16]
 80007a6:	f023 0302 	bic.w	r3, r3, #2
 80007aa:	6113      	str	r3, [r2, #16]
 80007ac:	4770      	bx	lr

080007ae <HAL_ResumeTick>:
 80007ae:	f04f 22e0 	mov.w	r2, #3758153728	@ 0xe000e000
 80007b2:	6913      	ldr	r3, [r2, #16]
 80007b4:	f043 0302 	orr.w	r3, r3, #2
 80007b8:	6113      	str	r3, [r2, #16]
 80007ba:	4770      	bx	lr

080007bc <LL_ADC_SetChannelSamplingTime>:
 80007bc:	b530      	push	{r4, r5, lr}
 80007be:	0dcc      	lsrs	r4, r1, #23
 80007c0:	f004 0404 	and.w	r4, r4, #4
 80007c4:	3014      	adds	r0, #20
 80007c6:	f3c1 5104 	ubfx	r1, r1, #20, #5
 80007ca:	5903      	ldr	r3, [r0, r4]
 80007cc:	2507      	movs	r5, #7
 80007ce:	408d      	lsls	r5, r1
 80007d0:	ea23 0305 	bic.w	r3, r3, r5
 80007d4:	408a      	lsls	r2, r1
 80007d6:	4313      	orrs	r3, r2
 80007d8:	5103      	str	r3, [r0, r4]
 80007da:	bd30      	pop	{r4, r5, pc}

080007dc <LL_ADC_REG_IsConversionOngoing>:
 80007dc:	6880      	ldr	r0, [r0, #8]
 80007de:	f3c0 0080 	ubfx	r0, r0, #2, #1
 80007e2:	4770      	bx	lr

080007e4 <HAL_ADC_Init>:
 80007e4:	b537      	push	{r0, r1, r2, r4, r5, lr}
 80007e6:	2300      	movs	r3, #0
 80007e8:	9301      	str	r3, [sp, #4]
 80007ea:	4604      	mov	r4, r0
 80007ec:	2800      	cmp	r0, #0
 80007ee:	f000 80bb 	beq.w	8000968 <HAL_ADC_Init+0x184>
 80007f2:	6d45      	ldr	r5, [r0, #84]	@ 0x54
 80007f4:	b925      	cbnz	r5, 8000800 <HAL_ADC_Init+0x1c>
 80007f6:	f7ff febd 	bl	8000574 <HAL_ADC_MspInit>
 80007fa:	65a5      	str	r5, [r4, #88]	@ 0x58
 80007fc:	f884 5050 	strb.w	r5, [r4, #80]	@ 0x50
 8000800:	6823      	ldr	r3, [r4, #0]
 8000802:	689a      	ldr	r2, [r3, #8]
 8000804:	0090      	lsls	r0, r2, #2
 8000806:	bf41      	itttt	mi
 8000808:	689a      	ldrmi	r2, [r3, #8]
 800080a:	f022 4220 	bicmi.w	r2, r2, #2684354560	@ 0xa0000000
 800080e:	f022 023f 	bicmi.w	r2, r2, #63	@ 0x3f
 8000812:	609a      	strmi	r2, [r3, #8]
 8000814:	689a      	ldr	r2, [r3, #8]
 8000816:	00d1      	lsls	r1, r2, #3
 8000818:	f140 8085 	bpl.w	8000926 <HAL_ADC_Init+0x142>
 800081c:	689a      	ldr	r2, [r3, #8]
 800081e:	00d2      	lsls	r2, r2, #3
 8000820:	f100 8098 	bmi.w	8000954 <HAL_ADC_Init+0x170>
 8000824:	6d62      	ldr	r2, [r4, #84]	@ 0x54
 8000826:	f042 0210 	orr.w	r2, r2, #16
 800082a:	6562      	str	r2, [r4, #84]	@ 0x54
 800082c:	6da2      	ldr	r2, [r4, #88]	@ 0x58
 800082e:	f042 0201 	orr.w	r2, r2, #1
 8000832:	65a2      	str	r2, [r4, #88]	@ 0x58
 8000834:	2101      	movs	r1, #1
 8000836:	4618      	mov	r0, r3
 8000838:	f7ff ffd0 	bl	80007dc <LL_ADC_REG_IsConversionOngoing>
 800083c:	6d62      	ldr	r2, [r4, #84]	@ 0x54
 800083e:	f002 0210 	and.w	r2, r2, #16
 8000842:	4302      	orrs	r2, r0
 8000844:	f040 808c 	bne.w	8000960 <HAL_ADC_Init+0x17c>
 8000848:	6d62      	ldr	r2, [r4, #84]	@ 0x54
 800084a:	f422 7281 	bic.w	r2, r2, #258	@ 0x102
 800084e:	f042 0202 	orr.w	r2, r2, #2
 8000852:	6562      	str	r2, [r4, #84]	@ 0x54
 8000854:	689a      	ldr	r2, [r3, #8]
 8000856:	07d5      	lsls	r5, r2, #31
 8000858:	d40a      	bmi.n	8000870 <HAL_ADC_Init+0x8c>
 800085a:	4a44      	ldr	r2, [pc, #272]	@ (800096c <HAL_ADC_Init+0x188>)
 800085c:	6892      	ldr	r2, [r2, #8]
 800085e:	07d0      	lsls	r0, r2, #31
 8000860:	d406      	bmi.n	8000870 <HAL_ADC_Init+0x8c>
 8000862:	4843      	ldr	r0, [pc, #268]	@ (8000970 <HAL_ADC_Init+0x18c>)
 8000864:	6865      	ldr	r5, [r4, #4]
 8000866:	6882      	ldr	r2, [r0, #8]
 8000868:	f422 127c 	bic.w	r2, r2, #4128768	@ 0x3f0000
 800086c:	432a      	orrs	r2, r5
 800086e:	6082      	str	r2, [r0, #8]
 8000870:	68e5      	ldr	r5, [r4, #12]
 8000872:	6b62      	ldr	r2, [r4, #52]	@ 0x34
 8000874:	f894 0020 	ldrb.w	r0, [r4, #32]
 8000878:	432a      	orrs	r2, r5
 800087a:	68a5      	ldr	r5, [r4, #8]
 800087c:	432a      	orrs	r2, r5
 800087e:	7e65      	ldrb	r5, [r4, #25]
 8000880:	2801      	cmp	r0, #1
 8000882:	ea42 3245 	orr.w	r2, r2, r5, lsl #13
 8000886:	ea42 4200 	orr.w	r2, r2, r0, lsl #16
 800088a:	bf02      	ittt	eq
 800088c:	6a60      	ldreq	r0, [r4, #36]	@ 0x24
 800088e:	f100 30ff 	addeq.w	r0, r0, #4294967295
 8000892:	ea42 4240 	orreq.w	r2, r2, r0, lsl #17
 8000896:	6aa0      	ldr	r0, [r4, #40]	@ 0x28
 8000898:	b120      	cbz	r0, 80008a4 <HAL_ADC_Init+0xc0>
 800089a:	6ae5      	ldr	r5, [r4, #44]	@ 0x2c
 800089c:	f400 7070 	and.w	r0, r0, #960	@ 0x3c0
 80008a0:	4328      	orrs	r0, r5
 80008a2:	4302      	orrs	r2, r0
 80008a4:	68dd      	ldr	r5, [r3, #12]
 80008a6:	4833      	ldr	r0, [pc, #204]	@ (8000974 <HAL_ADC_Init+0x190>)
 80008a8:	4028      	ands	r0, r5
 80008aa:	4310      	orrs	r0, r2
 80008ac:	60d8      	str	r0, [r3, #12]
 80008ae:	689a      	ldr	r2, [r3, #8]
 80008b0:	0712      	lsls	r2, r2, #28
 80008b2:	d420      	bmi.n	80008f6 <HAL_ADC_Init+0x112>
 80008b4:	68d8      	ldr	r0, [r3, #12]
 80008b6:	f894 2030 	ldrb.w	r2, [r4, #48]	@ 0x30
 80008ba:	7e25      	ldrb	r5, [r4, #24]
 80008bc:	0052      	lsls	r2, r2, #1
 80008be:	f420 4080 	bic.w	r0, r0, #16384	@ 0x4000
 80008c2:	ea42 3285 	orr.w	r2, r2, r5, lsl #14
 80008c6:	f020 0002 	bic.w	r0, r0, #2
 80008ca:	4302      	orrs	r2, r0
 80008cc:	60da      	str	r2, [r3, #12]
 80008ce:	f894 2038 	ldrb.w	r2, [r4, #56]	@ 0x38
 80008d2:	2a01      	cmp	r2, #1
 80008d4:	d140      	bne.n	8000958 <HAL_ADC_Init+0x174>
 80008d6:	e9d4 250f 	ldrd	r2, r5, [r4, #60]	@ 0x3c
 80008da:	6918      	ldr	r0, [r3, #16]
 80008dc:	f420 60ff 	bic.w	r0, r0, #2040	@ 0x7f8
 80008e0:	f020 0004 	bic.w	r0, r0, #4
 80008e4:	432a      	orrs	r2, r5
 80008e6:	4302      	orrs	r2, r0
 80008e8:	6c60      	ldr	r0, [r4, #68]	@ 0x44
 80008ea:	4302      	orrs	r2, r0
 80008ec:	6ca0      	ldr	r0, [r4, #72]	@ 0x48
 80008ee:	4302      	orrs	r2, r0
 80008f0:	f042 0201 	orr.w	r2, r2, #1
 80008f4:	611a      	str	r2, [r3, #16]
 80008f6:	6922      	ldr	r2, [r4, #16]
 80008f8:	2a01      	cmp	r2, #1
 80008fa:	bf05      	ittet	eq
 80008fc:	6b18      	ldreq	r0, [r3, #48]	@ 0x30
 80008fe:	69e2      	ldreq	r2, [r4, #28]
 8000900:	6b1a      	ldrne	r2, [r3, #48]	@ 0x30
 8000902:	f102 32ff 	addeq.w	r2, r2, #4294967295
 8000906:	bf06      	itte	eq
 8000908:	f020 000f 	biceq.w	r0, r0, #15
 800090c:	4302      	orreq	r2, r0
 800090e:	f022 020f 	bicne.w	r2, r2, #15
 8000912:	631a      	str	r2, [r3, #48]	@ 0x30
 8000914:	6d63      	ldr	r3, [r4, #84]	@ 0x54
 8000916:	f023 0303 	bic.w	r3, r3, #3
 800091a:	f043 0301 	orr.w	r3, r3, #1
 800091e:	6563      	str	r3, [r4, #84]	@ 0x54
 8000920:	4608      	mov	r0, r1
 8000922:	b003      	add	sp, #12
 8000924:	bd30      	pop	{r4, r5, pc}
 8000926:	689a      	ldr	r2, [r3, #8]
 8000928:	4913      	ldr	r1, [pc, #76]	@ (8000978 <HAL_ADC_Init+0x194>)
 800092a:	f022 4210 	bic.w	r2, r2, #2415919104	@ 0x90000000
 800092e:	f022 023f 	bic.w	r2, r2, #63	@ 0x3f
 8000932:	f042 5280 	orr.w	r2, r2, #268435456	@ 0x10000000
 8000936:	609a      	str	r2, [r3, #8]
 8000938:	4a10      	ldr	r2, [pc, #64]	@ (800097c <HAL_ADC_Init+0x198>)
 800093a:	6812      	ldr	r2, [r2, #0]
 800093c:	fbb2 f2f1 	udiv	r2, r2, r1
 8000940:	3201      	adds	r2, #1
 8000942:	0052      	lsls	r2, r2, #1
 8000944:	9201      	str	r2, [sp, #4]
 8000946:	9a01      	ldr	r2, [sp, #4]
 8000948:	2a00      	cmp	r2, #0
 800094a:	f43f af67 	beq.w	800081c <HAL_ADC_Init+0x38>
 800094e:	9a01      	ldr	r2, [sp, #4]
 8000950:	3a01      	subs	r2, #1
 8000952:	e7f7      	b.n	8000944 <HAL_ADC_Init+0x160>
 8000954:	2100      	movs	r1, #0
 8000956:	e76e      	b.n	8000836 <HAL_ADC_Init+0x52>
 8000958:	691a      	ldr	r2, [r3, #16]
 800095a:	f022 0201 	bic.w	r2, r2, #1
 800095e:	e7c9      	b.n	80008f4 <HAL_ADC_Init+0x110>
 8000960:	6d63      	ldr	r3, [r4, #84]	@ 0x54
 8000962:	f043 0310 	orr.w	r3, r3, #16
 8000966:	6563      	str	r3, [r4, #84]	@ 0x54
 8000968:	2101      	movs	r1, #1
 800096a:	e7d9      	b.n	8000920 <HAL_ADC_Init+0x13c>
 800096c:	50040000 	.word	0x50040000
 8000970:	50040300 	.word	0x50040300
 8000974:	fff0c007 	.word	0xfff0c007
 8000978:	00030d40 	.word	0x00030d40
 800097c:	20000008 	.word	0x20000008

08000980 <HAL_ADC_PollForConversion>:
 8000980:	b5f8      	push	{r3, r4, r5, r6, r7, lr}
 8000982:	6945      	ldr	r5, [r0, #20]
 8000984:	2d08      	cmp	r5, #8
 8000986:	4604      	mov	r4, r0
 8000988:	460e      	mov	r6, r1
 800098a:	d00a      	beq.n	80009a2 <HAL_ADC_PollForConversion+0x22>
 800098c:	6803      	ldr	r3, [r0, #0]
 800098e:	68db      	ldr	r3, [r3, #12]
 8000990:	07d9      	lsls	r1, r3, #31
 8000992:	d505      	bpl.n	80009a0 <HAL_ADC_PollForConversion+0x20>
 8000994:	6d43      	ldr	r3, [r0, #84]	@ 0x54
 8000996:	f043 0320 	orr.w	r3, r3, #32
 800099a:	6543      	str	r3, [r0, #84]	@ 0x54
 800099c:	2001      	movs	r0, #1
 800099e:	bdf8      	pop	{r3, r4, r5, r6, r7, pc}
 80009a0:	2504      	movs	r5, #4
 80009a2:	f7ff fee3 	bl	800076c <HAL_GetTick>
 80009a6:	4607      	mov	r7, r0
 80009a8:	6823      	ldr	r3, [r4, #0]
 80009aa:	681a      	ldr	r2, [r3, #0]
 80009ac:	422a      	tst	r2, r5
 80009ae:	d01d      	beq.n	80009ec <HAL_ADC_PollForConversion+0x6c>
 80009b0:	6d62      	ldr	r2, [r4, #84]	@ 0x54
 80009b2:	f442 7200 	orr.w	r2, r2, #512	@ 0x200
 80009b6:	6562      	str	r2, [r4, #84]	@ 0x54
 80009b8:	68da      	ldr	r2, [r3, #12]
 80009ba:	f412 6f40 	tst.w	r2, #3072	@ 0xc00
 80009be:	d10f      	bne.n	80009e0 <HAL_ADC_PollForConversion+0x60>
 80009c0:	7e62      	ldrb	r2, [r4, #25]
 80009c2:	b96a      	cbnz	r2, 80009e0 <HAL_ADC_PollForConversion+0x60>
 80009c4:	681a      	ldr	r2, [r3, #0]
 80009c6:	0710      	lsls	r0, r2, #28
 80009c8:	d50a      	bpl.n	80009e0 <HAL_ADC_PollForConversion+0x60>
 80009ca:	6d62      	ldr	r2, [r4, #84]	@ 0x54
 80009cc:	f422 7280 	bic.w	r2, r2, #256	@ 0x100
 80009d0:	6562      	str	r2, [r4, #84]	@ 0x54
 80009d2:	6d62      	ldr	r2, [r4, #84]	@ 0x54
 80009d4:	04d1      	lsls	r1, r2, #19
 80009d6:	bf5e      	ittt	pl
 80009d8:	6d62      	ldrpl	r2, [r4, #84]	@ 0x54
 80009da:	f042 0201 	orrpl.w	r2, r2, #1
 80009de:	6562      	strpl	r2, [r4, #84]	@ 0x54
 80009e0:	2d08      	cmp	r5, #8
 80009e2:	68da      	ldr	r2, [r3, #12]
 80009e4:	d117      	bne.n	8000a16 <HAL_ADC_PollForConversion+0x96>
 80009e6:	601d      	str	r5, [r3, #0]
 80009e8:	2000      	movs	r0, #0
 80009ea:	e7d8      	b.n	800099e <HAL_ADC_PollForConversion+0x1e>
 80009ec:	1c72      	adds	r2, r6, #1
 80009ee:	d0dc      	beq.n	80009aa <HAL_ADC_PollForConversion+0x2a>
 80009f0:	f7ff febc 	bl	800076c <HAL_GetTick>
 80009f4:	1bc0      	subs	r0, r0, r7
 80009f6:	42b0      	cmp	r0, r6
 80009f8:	d801      	bhi.n	80009fe <HAL_ADC_PollForConversion+0x7e>
 80009fa:	2e00      	cmp	r6, #0
 80009fc:	d1d4      	bne.n	80009a8 <HAL_ADC_PollForConversion+0x28>
 80009fe:	6823      	ldr	r3, [r4, #0]
 8000a00:	681b      	ldr	r3, [r3, #0]
 8000a02:	402b      	ands	r3, r5
 8000a04:	d1d0      	bne.n	80009a8 <HAL_ADC_PollForConversion+0x28>
 8000a06:	6d62      	ldr	r2, [r4, #84]	@ 0x54
 8000a08:	f884 3050 	strb.w	r3, [r4, #80]	@ 0x50
 8000a0c:	f042 0204 	orr.w	r2, r2, #4
 8000a10:	6562      	str	r2, [r4, #84]	@ 0x54
 8000a12:	2003      	movs	r0, #3
 8000a14:	e7c3      	b.n	800099e <HAL_ADC_PollForConversion+0x1e>
 8000a16:	0452      	lsls	r2, r2, #17
 8000a18:	d4e6      	bmi.n	80009e8 <HAL_ADC_PollForConversion+0x68>
 8000a1a:	220c      	movs	r2, #12
 8000a1c:	601a      	str	r2, [r3, #0]
 8000a1e:	e7e3      	b.n	80009e8 <HAL_ADC_PollForConversion+0x68>

08000a20 <HAL_ADC_GetValue>:
 8000a20:	6803      	ldr	r3, [r0, #0]
 8000a22:	6c18      	ldr	r0, [r3, #64]	@ 0x40
 8000a24:	4770      	bx	lr
	...

08000a28 <HAL_ADC_ConfigChannel>:
 8000a28:	b5f7      	push	{r0, r1, r2, r4, r5, r6, r7, lr}
 8000a2a:	2300      	movs	r3, #0
 8000a2c:	9301      	str	r3, [sp, #4]
 8000a2e:	f890 3050 	ldrb.w	r3, [r0, #80]	@ 0x50
 8000a32:	2b01      	cmp	r3, #1
 8000a34:	4605      	mov	r5, r0
 8000a36:	460e      	mov	r6, r1
 8000a38:	f000 81a6 	beq.w	8000d88 <HAL_ADC_ConfigChannel+0x360>
 8000a3c:	6804      	ldr	r4, [r0, #0]
 8000a3e:	2301      	movs	r3, #1
 8000a40:	f880 3050 	strb.w	r3, [r0, #80]	@ 0x50
 8000a44:	4620      	mov	r0, r4
 8000a46:	f7ff fec9 	bl	80007dc <LL_ADC_REG_IsConversionOngoing>
 8000a4a:	2800      	cmp	r0, #0
 8000a4c:	f040 8196 	bne.w	8000d7c <HAL_ADC_ConfigChannel+0x354>
 8000a50:	684b      	ldr	r3, [r1, #4]
 8000a52:	2b05      	cmp	r3, #5
 8000a54:	d806      	bhi.n	8000a64 <HAL_ADC_ConfigChannel+0x3c>
 8000a56:	3b02      	subs	r3, #2
 8000a58:	2b03      	cmp	r3, #3
 8000a5a:	bf9a      	itte	ls
 8000a5c:	4ab3      	ldrls	r2, [pc, #716]	@ (8000d2c <HAL_ADC_ConfigChannel+0x304>)
 8000a5e:	f832 3013 	ldrhls.w	r3, [r2, r3, lsl #1]
 8000a62:	2306      	movhi	r3, #6
 8000a64:	0999      	lsrs	r1, r3, #6
 8000a66:	6832      	ldr	r2, [r6, #0]
 8000a68:	f001 010c 	and.w	r1, r1, #12
 8000a6c:	f104 0730 	add.w	r7, r4, #48	@ 0x30
 8000a70:	f003 031f 	and.w	r3, r3, #31
 8000a74:	5878      	ldr	r0, [r7, r1]
 8000a76:	f04f 0c1f 	mov.w	ip, #31
 8000a7a:	f3c2 6284 	ubfx	r2, r2, #26, #5
 8000a7e:	409a      	lsls	r2, r3
 8000a80:	fa0c f303 	lsl.w	r3, ip, r3
 8000a84:	ea20 0303 	bic.w	r3, r0, r3
 8000a88:	431a      	orrs	r2, r3
 8000a8a:	507a      	str	r2, [r7, r1]
 8000a8c:	4620      	mov	r0, r4
 8000a8e:	f7ff fea5 	bl	80007dc <LL_ADC_REG_IsConversionOngoing>
 8000a92:	68a3      	ldr	r3, [r4, #8]
 8000a94:	f003 0308 	and.w	r3, r3, #8
 8000a98:	4303      	orrs	r3, r0
 8000a9a:	d120      	bne.n	8000ade <HAL_ADC_ConfigChannel+0xb6>
 8000a9c:	68b2      	ldr	r2, [r6, #8]
 8000a9e:	6831      	ldr	r1, [r6, #0]
 8000aa0:	4620      	mov	r0, r4
 8000aa2:	f7ff fe8b 	bl	80007bc <LL_ADC_SetChannelSamplingTime>
 8000aa6:	6930      	ldr	r0, [r6, #16]
 8000aa8:	6977      	ldr	r7, [r6, #20]
 8000aaa:	68e1      	ldr	r1, [r4, #12]
 8000aac:	6833      	ldr	r3, [r6, #0]
 8000aae:	2804      	cmp	r0, #4
 8000ab0:	f104 0260 	add.w	r2, r4, #96	@ 0x60
 8000ab4:	d056      	beq.n	8000b64 <HAL_ADC_ConfigChannel+0x13c>
 8000ab6:	f852 e020 	ldr.w	lr, [r2, r0, lsl #2]
 8000aba:	f8df c298 	ldr.w	ip, [pc, #664]	@ 8000d54 <HAL_ADC_ConfigChannel+0x32c>
 8000abe:	f3c1 01c1 	ubfx	r1, r1, #3, #2
 8000ac2:	f003 43f8 	and.w	r3, r3, #2080374784	@ 0x7c000000
 8000ac6:	ea0e 0c0c 	and.w	ip, lr, ip
 8000aca:	0049      	lsls	r1, r1, #1
 8000acc:	ea43 030c 	orr.w	r3, r3, ip
 8000ad0:	fa07 f101 	lsl.w	r1, r7, r1
 8000ad4:	430b      	orrs	r3, r1
 8000ad6:	f043 4300 	orr.w	r3, r3, #2147483648	@ 0x80000000
 8000ada:	f842 3020 	str.w	r3, [r2, r0, lsl #2]
 8000ade:	68a2      	ldr	r2, [r4, #8]
 8000ae0:	6833      	ldr	r3, [r6, #0]
 8000ae2:	07d7      	lsls	r7, r2, #31
 8000ae4:	d433      	bmi.n	8000b4e <HAL_ADC_ConfigChannel+0x126>
 8000ae6:	68f7      	ldr	r7, [r6, #12]
 8000ae8:	4a91      	ldr	r2, [pc, #580]	@ (8000d30 <HAL_ADC_ConfigChannel+0x308>)
 8000aea:	f8d4 10b0 	ldr.w	r1, [r4, #176]	@ 0xb0
 8000aee:	f007 0c18 	and.w	ip, r7, #24
 8000af2:	f3c3 0012 	ubfx	r0, r3, #0, #19
 8000af6:	fa22 f20c 	lsr.w	r2, r2, ip
 8000afa:	401a      	ands	r2, r3
 8000afc:	ea21 0100 	bic.w	r1, r1, r0
 8000b00:	430a      	orrs	r2, r1
 8000b02:	f8c4 20b0 	str.w	r2, [r4, #176]	@ 0xb0
 8000b06:	4a8b      	ldr	r2, [pc, #556]	@ (8000d34 <HAL_ADC_ConfigChannel+0x30c>)
 8000b08:	4297      	cmp	r7, r2
 8000b0a:	d120      	bne.n	8000b4e <HAL_ADC_ConfigChannel+0x126>
 8000b0c:	2800      	cmp	r0, #0
 8000b0e:	f040 8088 	bne.w	8000c22 <HAL_ADC_ConfigChannel+0x1fa>
 8000b12:	0e9a      	lsrs	r2, r3, #26
 8000b14:	3201      	adds	r2, #1
 8000b16:	f002 071f 	and.w	r7, r2, #31
 8000b1a:	2f09      	cmp	r7, #9
 8000b1c:	f04f 0101 	mov.w	r1, #1
 8000b20:	ea4f 6282 	mov.w	r2, r2, lsl #26
 8000b24:	f200 809d 	bhi.w	8000c62 <HAL_ADC_ConfigChannel+0x23a>
 8000b28:	f002 42f8 	and.w	r2, r2, #2080374784	@ 0x7c000000
 8000b2c:	40b9      	lsls	r1, r7
 8000b2e:	4311      	orrs	r1, r2
 8000b30:	2800      	cmp	r0, #0
 8000b32:	f040 8091 	bne.w	8000c58 <HAL_ADC_ConfigChannel+0x230>
 8000b36:	0e9b      	lsrs	r3, r3, #26
 8000b38:	3301      	adds	r3, #1
 8000b3a:	f003 031f 	and.w	r3, r3, #31
 8000b3e:	eb03 0343 	add.w	r3, r3, r3, lsl #1
 8000b42:	051b      	lsls	r3, r3, #20
 8000b44:	68b2      	ldr	r2, [r6, #8]
 8000b46:	4319      	orrs	r1, r3
 8000b48:	4620      	mov	r0, r4
 8000b4a:	f7ff fe37 	bl	80007bc <LL_ADC_SetChannelSamplingTime>
 8000b4e:	6831      	ldr	r1, [r6, #0]
 8000b50:	4b79      	ldr	r3, [pc, #484]	@ (8000d38 <HAL_ADC_ConfigChannel+0x310>)
 8000b52:	4219      	tst	r1, r3
 8000b54:	f040 80b3 	bne.w	8000cbe <HAL_ADC_ConfigChannel+0x296>
 8000b58:	2000      	movs	r0, #0
 8000b5a:	2300      	movs	r3, #0
 8000b5c:	f885 3050 	strb.w	r3, [r5, #80]	@ 0x50
 8000b60:	b003      	add	sp, #12
 8000b62:	bdf0      	pop	{r4, r5, r6, r7, pc}
 8000b64:	6e21      	ldr	r1, [r4, #96]	@ 0x60
 8000b66:	6e21      	ldr	r1, [r4, #96]	@ 0x60
 8000b68:	f3c3 0012 	ubfx	r0, r3, #0, #19
 8000b6c:	f3c1 6184 	ubfx	r1, r1, #26, #5
 8000b70:	2800      	cmp	r0, #0
 8000b72:	d139      	bne.n	8000be8 <HAL_ADC_ConfigChannel+0x1c0>
 8000b74:	f3c3 6384 	ubfx	r3, r3, #26, #5
 8000b78:	4299      	cmp	r1, r3
 8000b7a:	bf02      	ittt	eq
 8000b7c:	6e23      	ldreq	r3, [r4, #96]	@ 0x60
 8000b7e:	f023 4300 	biceq.w	r3, r3, #2147483648	@ 0x80000000
 8000b82:	6623      	streq	r3, [r4, #96]	@ 0x60
 8000b84:	6853      	ldr	r3, [r2, #4]
 8000b86:	6833      	ldr	r3, [r6, #0]
 8000b88:	6851      	ldr	r1, [r2, #4]
 8000b8a:	f3c3 0012 	ubfx	r0, r3, #0, #19
 8000b8e:	f3c1 6184 	ubfx	r1, r1, #26, #5
 8000b92:	2800      	cmp	r0, #0
 8000b94:	d12f      	bne.n	8000bf6 <HAL_ADC_ConfigChannel+0x1ce>
 8000b96:	f3c3 6384 	ubfx	r3, r3, #26, #5
 8000b9a:	4299      	cmp	r1, r3
 8000b9c:	bf02      	ittt	eq
 8000b9e:	6853      	ldreq	r3, [r2, #4]
 8000ba0:	f023 4300 	biceq.w	r3, r3, #2147483648	@ 0x80000000
 8000ba4:	6053      	streq	r3, [r2, #4]
 8000ba6:	6893      	ldr	r3, [r2, #8]
 8000ba8:	6833      	ldr	r3, [r6, #0]
 8000baa:	6891      	ldr	r1, [r2, #8]
 8000bac:	f3c3 0012 	ubfx	r0, r3, #0, #19
 8000bb0:	f3c1 6184 	ubfx	r1, r1, #26, #5
 8000bb4:	bb30      	cbnz	r0, 8000c04 <HAL_ADC_ConfigChannel+0x1dc>
 8000bb6:	f3c3 6384 	ubfx	r3, r3, #26, #5
 8000bba:	4299      	cmp	r1, r3
 8000bbc:	bf02      	ittt	eq
 8000bbe:	6893      	ldreq	r3, [r2, #8]
 8000bc0:	f023 4300 	biceq.w	r3, r3, #2147483648	@ 0x80000000
 8000bc4:	6093      	streq	r3, [r2, #8]
 8000bc6:	68d3      	ldr	r3, [r2, #12]
 8000bc8:	6833      	ldr	r3, [r6, #0]
 8000bca:	68d1      	ldr	r1, [r2, #12]
 8000bcc:	f3c3 0012 	ubfx	r0, r3, #0, #19
 8000bd0:	f3c1 6184 	ubfx	r1, r1, #26, #5
 8000bd4:	b9e8      	cbnz	r0, 8000c12 <HAL_ADC_ConfigChannel+0x1ea>
 8000bd6:	f3c3 6384 	ubfx	r3, r3, #26, #5
 8000bda:	4299      	cmp	r1, r3
 8000bdc:	bf02      	ittt	eq
 8000bde:	68d3      	ldreq	r3, [r2, #12]
 8000be0:	f023 4300 	biceq.w	r3, r3, #2147483648	@ 0x80000000
 8000be4:	60d3      	streq	r3, [r2, #12]
 8000be6:	e77a      	b.n	8000ade <HAL_ADC_ConfigChannel+0xb6>
 8000be8:	fa93 f3a3 	rbit	r3, r3
 8000bec:	2b00      	cmp	r3, #0
 8000bee:	d0c9      	beq.n	8000b84 <HAL_ADC_ConfigChannel+0x15c>
 8000bf0:	fab3 f383 	clz	r3, r3
 8000bf4:	e7c0      	b.n	8000b78 <HAL_ADC_ConfigChannel+0x150>
 8000bf6:	fa93 f3a3 	rbit	r3, r3
 8000bfa:	2b00      	cmp	r3, #0
 8000bfc:	d0d3      	beq.n	8000ba6 <HAL_ADC_ConfigChannel+0x17e>
 8000bfe:	fab3 f383 	clz	r3, r3
 8000c02:	e7ca      	b.n	8000b9a <HAL_ADC_ConfigChannel+0x172>
 8000c04:	fa93 f3a3 	rbit	r3, r3
 8000c08:	2b00      	cmp	r3, #0
 8000c0a:	d0dc      	beq.n	8000bc6 <HAL_ADC_ConfigChannel+0x19e>
 8000c0c:	fab3 f383 	clz	r3, r3
 8000c10:	e7d3      	b.n	8000bba <HAL_ADC_ConfigChannel+0x192>
 8000c12:	fa93 f3a3 	rbit	r3, r3
 8000c16:	2b00      	cmp	r3, #0
 8000c18:	f43f af61 	beq.w	8000ade <HAL_ADC_ConfigChannel+0xb6>
 8000c1c:	fab3 f383 	clz	r3, r3
 8000c20:	e7db      	b.n	8000bda <HAL_ADC_ConfigChannel+0x1b2>
 8000c22:	fa93 f2a3 	rbit	r2, r3
 8000c26:	b132      	cbz	r2, 8000c36 <HAL_ADC_ConfigChannel+0x20e>
 8000c28:	fab2 f282 	clz	r2, r2
 8000c2c:	3201      	adds	r2, #1
 8000c2e:	f002 021f 	and.w	r2, r2, #31
 8000c32:	2a09      	cmp	r2, #9
 8000c34:	d825      	bhi.n	8000c82 <HAL_ADC_ConfigChannel+0x25a>
 8000c36:	fa93 f2a3 	rbit	r2, r3
 8000c3a:	fab2 f282 	clz	r2, r2
 8000c3e:	3201      	adds	r2, #1
 8000c40:	0692      	lsls	r2, r2, #26
 8000c42:	f002 42f8 	and.w	r2, r2, #2080374784	@ 0x7c000000
 8000c46:	fa93 f7a3 	rbit	r7, r3
 8000c4a:	fab7 f787 	clz	r7, r7
 8000c4e:	3701      	adds	r7, #1
 8000c50:	f007 071f 	and.w	r7, r7, #31
 8000c54:	2101      	movs	r1, #1
 8000c56:	e769      	b.n	8000b2c <HAL_ADC_ConfigChannel+0x104>
 8000c58:	fa93 f3a3 	rbit	r3, r3
 8000c5c:	fab3 f383 	clz	r3, r3
 8000c60:	e76a      	b.n	8000b38 <HAL_ADC_ConfigChannel+0x110>
 8000c62:	f002 42f8 	and.w	r2, r2, #2080374784	@ 0x7c000000
 8000c66:	40b9      	lsls	r1, r7
 8000c68:	4311      	orrs	r1, r2
 8000c6a:	b9d8      	cbnz	r0, 8000ca4 <HAL_ADC_ConfigChannel+0x27c>
 8000c6c:	0e9b      	lsrs	r3, r3, #26
 8000c6e:	3301      	adds	r3, #1
 8000c70:	f003 031f 	and.w	r3, r3, #31
 8000c74:	eb03 0343 	add.w	r3, r3, r3, lsl #1
 8000c78:	3b1e      	subs	r3, #30
 8000c7a:	051b      	lsls	r3, r3, #20
 8000c7c:	f043 7300 	orr.w	r3, r3, #33554432	@ 0x2000000
 8000c80:	e760      	b.n	8000b44 <HAL_ADC_ConfigChannel+0x11c>
 8000c82:	fa93 f2a3 	rbit	r2, r3
 8000c86:	fab2 f282 	clz	r2, r2
 8000c8a:	3201      	adds	r2, #1
 8000c8c:	0692      	lsls	r2, r2, #26
 8000c8e:	f002 42f8 	and.w	r2, r2, #2080374784	@ 0x7c000000
 8000c92:	fa93 f7a3 	rbit	r7, r3
 8000c96:	fab7 f787 	clz	r7, r7
 8000c9a:	3701      	adds	r7, #1
 8000c9c:	f007 071f 	and.w	r7, r7, #31
 8000ca0:	2101      	movs	r1, #1
 8000ca2:	e7e0      	b.n	8000c66 <HAL_ADC_ConfigChannel+0x23e>
 8000ca4:	fa93 f2a3 	rbit	r2, r3
 8000ca8:	fab2 f282 	clz	r2, r2
 8000cac:	3201      	adds	r2, #1
 8000cae:	f002 021f 	and.w	r2, r2, #31
 8000cb2:	2303      	movs	r3, #3
 8000cb4:	f06f 001d 	mvn.w	r0, #29
 8000cb8:	fb13 0302 	smlabb	r3, r3, r2, r0
 8000cbc:	e7dd      	b.n	8000c7a <HAL_ADC_ConfigChannel+0x252>
 8000cbe:	4b1f      	ldr	r3, [pc, #124]	@ (8000d3c <HAL_ADC_ConfigChannel+0x314>)
 8000cc0:	4e1f      	ldr	r6, [pc, #124]	@ (8000d40 <HAL_ADC_ConfigChannel+0x318>)
 8000cc2:	689a      	ldr	r2, [r3, #8]
 8000cc4:	42b1      	cmp	r1, r6
 8000cc6:	f002 70e0 	and.w	r0, r2, #29360128	@ 0x1c00000
 8000cca:	d11d      	bne.n	8000d08 <HAL_ADC_ConfigChannel+0x2e0>
 8000ccc:	0216      	lsls	r6, r2, #8
 8000cce:	f53f af43 	bmi.w	8000b58 <HAL_ADC_ConfigChannel+0x130>
 8000cd2:	4a1c      	ldr	r2, [pc, #112]	@ (8000d44 <HAL_ADC_ConfigChannel+0x31c>)
 8000cd4:	4294      	cmp	r4, r2
 8000cd6:	f47f af3f 	bne.w	8000b58 <HAL_ADC_ConfigChannel+0x130>
 8000cda:	689a      	ldr	r2, [r3, #8]
 8000cdc:	f022 72e0 	bic.w	r2, r2, #29360128	@ 0x1c00000
 8000ce0:	4302      	orrs	r2, r0
 8000ce2:	f442 0200 	orr.w	r2, r2, #8388608	@ 0x800000
 8000ce6:	609a      	str	r2, [r3, #8]
 8000ce8:	4b17      	ldr	r3, [pc, #92]	@ (8000d48 <HAL_ADC_ConfigChannel+0x320>)
 8000cea:	681a      	ldr	r2, [r3, #0]
 8000cec:	4b17      	ldr	r3, [pc, #92]	@ (8000d4c <HAL_ADC_ConfigChannel+0x324>)
 8000cee:	fbb2 f2f3 	udiv	r2, r2, r3
 8000cf2:	230c      	movs	r3, #12
 8000cf4:	fb02 3303 	mla	r3, r2, r3, r3
 8000cf8:	9301      	str	r3, [sp, #4]
 8000cfa:	9b01      	ldr	r3, [sp, #4]
 8000cfc:	2b00      	cmp	r3, #0
 8000cfe:	f43f af2b 	beq.w	8000b58 <HAL_ADC_ConfigChannel+0x130>
 8000d02:	9b01      	ldr	r3, [sp, #4]
 8000d04:	3b01      	subs	r3, #1
 8000d06:	e7f7      	b.n	8000cf8 <HAL_ADC_ConfigChannel+0x2d0>
 8000d08:	4e11      	ldr	r6, [pc, #68]	@ (8000d50 <HAL_ADC_ConfigChannel+0x328>)
 8000d0a:	42b1      	cmp	r1, r6
 8000d0c:	d124      	bne.n	8000d58 <HAL_ADC_ConfigChannel+0x330>
 8000d0e:	01d1      	lsls	r1, r2, #7
 8000d10:	f53f af22 	bmi.w	8000b58 <HAL_ADC_ConfigChannel+0x130>
 8000d14:	4a0b      	ldr	r2, [pc, #44]	@ (8000d44 <HAL_ADC_ConfigChannel+0x31c>)
 8000d16:	4294      	cmp	r4, r2
 8000d18:	f47f af1e 	bne.w	8000b58 <HAL_ADC_ConfigChannel+0x130>
 8000d1c:	689a      	ldr	r2, [r3, #8]
 8000d1e:	f022 72e0 	bic.w	r2, r2, #29360128	@ 0x1c00000
 8000d22:	4302      	orrs	r2, r0
 8000d24:	f042 7280 	orr.w	r2, r2, #16777216	@ 0x1000000
 8000d28:	609a      	str	r2, [r3, #8]
 8000d2a:	e715      	b.n	8000b58 <HAL_ADC_ConfigChannel+0x130>
 8000d2c:	080024a4 	.word	0x080024a4
 8000d30:	0007ffff 	.word	0x0007ffff
 8000d34:	407f0000 	.word	0x407f0000
 8000d38:	80080000 	.word	0x80080000
 8000d3c:	50040300 	.word	0x50040300
 8000d40:	c7520000 	.word	0xc7520000
 8000d44:	50040000 	.word	0x50040000
 8000d48:	20000008 	.word	0x20000008
 8000d4c:	00030d40 	.word	0x00030d40
 8000d50:	cb840000 	.word	0xcb840000
 8000d54:	03fff000 	.word	0x03fff000
 8000d58:	4e0c      	ldr	r6, [pc, #48]	@ (8000d8c <HAL_ADC_ConfigChannel+0x364>)
 8000d5a:	42b1      	cmp	r1, r6
 8000d5c:	f47f aefc 	bne.w	8000b58 <HAL_ADC_ConfigChannel+0x130>
 8000d60:	0252      	lsls	r2, r2, #9
 8000d62:	f53f aef9 	bmi.w	8000b58 <HAL_ADC_ConfigChannel+0x130>
 8000d66:	4a0a      	ldr	r2, [pc, #40]	@ (8000d90 <HAL_ADC_ConfigChannel+0x368>)
 8000d68:	4294      	cmp	r4, r2
 8000d6a:	f47f aef5 	bne.w	8000b58 <HAL_ADC_ConfigChannel+0x130>
 8000d6e:	689a      	ldr	r2, [r3, #8]
 8000d70:	f022 72e0 	bic.w	r2, r2, #29360128	@ 0x1c00000
 8000d74:	4302      	orrs	r2, r0
 8000d76:	f442 0280 	orr.w	r2, r2, #4194304	@ 0x400000
 8000d7a:	e7d5      	b.n	8000d28 <HAL_ADC_ConfigChannel+0x300>
 8000d7c:	6d6a      	ldr	r2, [r5, #84]	@ 0x54
 8000d7e:	f042 0220 	orr.w	r2, r2, #32
 8000d82:	656a      	str	r2, [r5, #84]	@ 0x54
 8000d84:	4618      	mov	r0, r3
 8000d86:	e6e8      	b.n	8000b5a <HAL_ADC_ConfigChannel+0x132>
 8000d88:	2002      	movs	r0, #2
 8000d8a:	e6e9      	b.n	8000b60 <HAL_ADC_ConfigChannel+0x138>
 8000d8c:	80000001 	.word	0x80000001
 8000d90:	50040000 	.word	0x50040000

08000d94 <ADC_ConversionStop>:
 8000d94:	6803      	ldr	r3, [r0, #0]
 8000d96:	b570      	push	{r4, r5, r6, lr}
 8000d98:	4604      	mov	r4, r0
 8000d9a:	4618      	mov	r0, r3
 8000d9c:	f7ff fd1e 	bl	80007dc <LL_ADC_REG_IsConversionOngoing>
 8000da0:	689a      	ldr	r2, [r3, #8]
 8000da2:	f002 0208 	and.w	r2, r2, #8
 8000da6:	4302      	orrs	r2, r0
 8000da8:	d101      	bne.n	8000dae <ADC_ConversionStop+0x1a>
 8000daa:	2000      	movs	r0, #0
 8000dac:	bd70      	pop	{r4, r5, r6, pc}
 8000dae:	68da      	ldr	r2, [r3, #12]
 8000db0:	0192      	lsls	r2, r2, #6
 8000db2:	d53a      	bpl.n	8000e2a <ADC_ConversionStop+0x96>
 8000db4:	8b20      	ldrh	r0, [r4, #24]
 8000db6:	f240 1201 	movw	r2, #257	@ 0x101
 8000dba:	4290      	cmp	r0, r2
 8000dbc:	d135      	bne.n	8000e2a <ADC_ConversionStop+0x96>
 8000dbe:	4a27      	ldr	r2, [pc, #156]	@ (8000e5c <ADC_ConversionStop+0xc8>)
 8000dc0:	6819      	ldr	r1, [r3, #0]
 8000dc2:	064e      	lsls	r6, r1, #25
 8000dc4:	d525      	bpl.n	8000e12 <ADC_ConversionStop+0x7e>
 8000dc6:	2240      	movs	r2, #64	@ 0x40
 8000dc8:	601a      	str	r2, [r3, #0]
 8000dca:	2101      	movs	r1, #1
 8000dcc:	4618      	mov	r0, r3
 8000dce:	f7ff fd05 	bl	80007dc <LL_ADC_REG_IsConversionOngoing>
 8000dd2:	b150      	cbz	r0, 8000dea <ADC_ConversionStop+0x56>
 8000dd4:	689a      	ldr	r2, [r3, #8]
 8000dd6:	0795      	lsls	r5, r2, #30
 8000dd8:	d407      	bmi.n	8000dea <ADC_ConversionStop+0x56>
 8000dda:	689a      	ldr	r2, [r3, #8]
 8000ddc:	f022 4200 	bic.w	r2, r2, #2147483648	@ 0x80000000
 8000de0:	f022 023f 	bic.w	r2, r2, #63	@ 0x3f
 8000de4:	f042 0210 	orr.w	r2, r2, #16
 8000de8:	609a      	str	r2, [r3, #8]
 8000dea:	2901      	cmp	r1, #1
 8000dec:	d11f      	bne.n	8000e2e <ADC_ConversionStop+0x9a>
 8000dee:	2504      	movs	r5, #4
 8000df0:	f7ff fcbc 	bl	800076c <HAL_GetTick>
 8000df4:	4606      	mov	r6, r0
 8000df6:	6823      	ldr	r3, [r4, #0]
 8000df8:	689b      	ldr	r3, [r3, #8]
 8000dfa:	422b      	tst	r3, r5
 8000dfc:	d0d5      	beq.n	8000daa <ADC_ConversionStop+0x16>
 8000dfe:	f7ff fcb5 	bl	800076c <HAL_GetTick>
 8000e02:	1b80      	subs	r0, r0, r6
 8000e04:	2805      	cmp	r0, #5
 8000e06:	d9f6      	bls.n	8000df6 <ADC_ConversionStop+0x62>
 8000e08:	6823      	ldr	r3, [r4, #0]
 8000e0a:	689b      	ldr	r3, [r3, #8]
 8000e0c:	422b      	tst	r3, r5
 8000e0e:	d0f2      	beq.n	8000df6 <ADC_ConversionStop+0x62>
 8000e10:	e001      	b.n	8000e16 <ADC_ConversionStop+0x82>
 8000e12:	3a01      	subs	r2, #1
 8000e14:	d1d4      	bne.n	8000dc0 <ADC_ConversionStop+0x2c>
 8000e16:	6d63      	ldr	r3, [r4, #84]	@ 0x54
 8000e18:	f043 0310 	orr.w	r3, r3, #16
 8000e1c:	6563      	str	r3, [r4, #84]	@ 0x54
 8000e1e:	6da3      	ldr	r3, [r4, #88]	@ 0x58
 8000e20:	f043 0301 	orr.w	r3, r3, #1
 8000e24:	65a3      	str	r3, [r4, #88]	@ 0x58
 8000e26:	2001      	movs	r0, #1
 8000e28:	e7c0      	b.n	8000dac <ADC_ConversionStop+0x18>
 8000e2a:	2902      	cmp	r1, #2
 8000e2c:	d1ce      	bne.n	8000dcc <ADC_ConversionStop+0x38>
 8000e2e:	689a      	ldr	r2, [r3, #8]
 8000e30:	0710      	lsls	r0, r2, #28
 8000e32:	d50a      	bpl.n	8000e4a <ADC_ConversionStop+0xb6>
 8000e34:	689a      	ldr	r2, [r3, #8]
 8000e36:	0792      	lsls	r2, r2, #30
 8000e38:	d407      	bmi.n	8000e4a <ADC_ConversionStop+0xb6>
 8000e3a:	689a      	ldr	r2, [r3, #8]
 8000e3c:	f022 4200 	bic.w	r2, r2, #2147483648	@ 0x80000000
 8000e40:	f022 023f 	bic.w	r2, r2, #63	@ 0x3f
 8000e44:	f042 0220 	orr.w	r2, r2, #32
 8000e48:	609a      	str	r2, [r3, #8]
 8000e4a:	2902      	cmp	r1, #2
 8000e4c:	d003      	beq.n	8000e56 <ADC_ConversionStop+0xc2>
 8000e4e:	2903      	cmp	r1, #3
 8000e50:	d1cd      	bne.n	8000dee <ADC_ConversionStop+0x5a>
 8000e52:	250c      	movs	r5, #12
 8000e54:	e7cc      	b.n	8000df0 <ADC_ConversionStop+0x5c>
 8000e56:	2508      	movs	r5, #8
 8000e58:	e7ca      	b.n	8000df0 <ADC_ConversionStop+0x5c>
 8000e5a:	bf00      	nop
 8000e5c:	a3400001 	.word	0xa3400001

08000e60 <ADC_Enable>:
 8000e60:	b573      	push	{r0, r1, r4, r5, r6, lr}
 8000e62:	2300      	movs	r3, #0
 8000e64:	6802      	ldr	r2, [r0, #0]
 8000e66:	9301      	str	r3, [sp, #4]
 8000e68:	6893      	ldr	r3, [r2, #8]
 8000e6a:	07dd      	lsls	r5, r3, #31
 8000e6c:	4604      	mov	r4, r0
 8000e6e:	d502      	bpl.n	8000e76 <ADC_Enable+0x16>
 8000e70:	2000      	movs	r0, #0
 8000e72:	b002      	add	sp, #8
 8000e74:	bd70      	pop	{r4, r5, r6, pc}
 8000e76:	6891      	ldr	r1, [r2, #8]
 8000e78:	4b20      	ldr	r3, [pc, #128]	@ (8000efc <ADC_Enable+0x9c>)
 8000e7a:	4219      	tst	r1, r3
 8000e7c:	d009      	beq.n	8000e92 <ADC_Enable+0x32>
 8000e7e:	6d63      	ldr	r3, [r4, #84]	@ 0x54
 8000e80:	f043 0310 	orr.w	r3, r3, #16
 8000e84:	6563      	str	r3, [r4, #84]	@ 0x54
 8000e86:	6da3      	ldr	r3, [r4, #88]	@ 0x58
 8000e88:	f043 0301 	orr.w	r3, r3, #1
 8000e8c:	65a3      	str	r3, [r4, #88]	@ 0x58
 8000e8e:	2001      	movs	r0, #1
 8000e90:	e7ef      	b.n	8000e72 <ADC_Enable+0x12>
 8000e92:	6893      	ldr	r3, [r2, #8]
 8000e94:	f023 4300 	bic.w	r3, r3, #2147483648	@ 0x80000000
 8000e98:	f023 033f 	bic.w	r3, r3, #63	@ 0x3f
 8000e9c:	f043 0301 	orr.w	r3, r3, #1
 8000ea0:	6093      	str	r3, [r2, #8]
 8000ea2:	4b17      	ldr	r3, [pc, #92]	@ (8000f00 <ADC_Enable+0xa0>)
 8000ea4:	689b      	ldr	r3, [r3, #8]
 8000ea6:	0218      	lsls	r0, r3, #8
 8000ea8:	d419      	bmi.n	8000ede <ADC_Enable+0x7e>
 8000eaa:	f7ff fc5f 	bl	800076c <HAL_GetTick>
 8000eae:	4e15      	ldr	r6, [pc, #84]	@ (8000f04 <ADC_Enable+0xa4>)
 8000eb0:	4605      	mov	r5, r0
 8000eb2:	6822      	ldr	r2, [r4, #0]
 8000eb4:	6813      	ldr	r3, [r2, #0]
 8000eb6:	07db      	lsls	r3, r3, #31
 8000eb8:	d4da      	bmi.n	8000e70 <ADC_Enable+0x10>
 8000eba:	6893      	ldr	r3, [r2, #8]
 8000ebc:	07d9      	lsls	r1, r3, #31
 8000ebe:	bf5f      	itttt	pl
 8000ec0:	6893      	ldrpl	r3, [r2, #8]
 8000ec2:	4033      	andpl	r3, r6
 8000ec4:	f043 0301 	orrpl.w	r3, r3, #1
 8000ec8:	6093      	strpl	r3, [r2, #8]
 8000eca:	f7ff fc4f 	bl	800076c <HAL_GetTick>
 8000ece:	1b40      	subs	r0, r0, r5
 8000ed0:	2802      	cmp	r0, #2
 8000ed2:	d9ee      	bls.n	8000eb2 <ADC_Enable+0x52>
 8000ed4:	6823      	ldr	r3, [r4, #0]
 8000ed6:	681b      	ldr	r3, [r3, #0]
 8000ed8:	07da      	lsls	r2, r3, #31
 8000eda:	d4ea      	bmi.n	8000eb2 <ADC_Enable+0x52>
 8000edc:	e7cf      	b.n	8000e7e <ADC_Enable+0x1e>
 8000ede:	4b0a      	ldr	r3, [pc, #40]	@ (8000f08 <ADC_Enable+0xa8>)
 8000ee0:	681a      	ldr	r2, [r3, #0]
 8000ee2:	4b0a      	ldr	r3, [pc, #40]	@ (8000f0c <ADC_Enable+0xac>)
 8000ee4:	fbb2 f2f3 	udiv	r2, r2, r3
 8000ee8:	230c      	movs	r3, #12
 8000eea:	fb02 3303 	mla	r3, r2, r3, r3
 8000eee:	9301      	str	r3, [sp, #4]
 8000ef0:	9b01      	ldr	r3, [sp, #4]
 8000ef2:	2b00      	cmp	r3, #0
 8000ef4:	d0d9      	beq.n	8000eaa <ADC_Enable+0x4a>
 8000ef6:	9b01      	ldr	r3, [sp, #4]
 8000ef8:	3b01      	subs	r3, #1
 8000efa:	e7f8      	b.n	8000eee <ADC_Enable+0x8e>
 8000efc:	8000003f 	.word	0x8000003f
 8000f00:	50040300 	.word	0x50040300
 8000f04:	7fffffc0 	.word	0x7fffffc0
 8000f08:	20000008 	.word	0x20000008
 8000f0c:	00030d40 	.word	0x00030d40

08000f10 <HAL_ADC_Start>:
 8000f10:	b538      	push	{r3, r4, r5, lr}
 8000f12:	4604      	mov	r4, r0
 8000f14:	6800      	ldr	r0, [r0, #0]
 8000f16:	f7ff fc61 	bl	80007dc <LL_ADC_REG_IsConversionOngoing>
 8000f1a:	4605      	mov	r5, r0
 8000f1c:	2800      	cmp	r0, #0
 8000f1e:	d136      	bne.n	8000f8e <HAL_ADC_Start+0x7e>
 8000f20:	f894 3050 	ldrb.w	r3, [r4, #80]	@ 0x50
 8000f24:	2b01      	cmp	r3, #1
 8000f26:	d032      	beq.n	8000f8e <HAL_ADC_Start+0x7e>
 8000f28:	2301      	movs	r3, #1
 8000f2a:	f884 3050 	strb.w	r3, [r4, #80]	@ 0x50
 8000f2e:	4620      	mov	r0, r4
 8000f30:	f7ff ff96 	bl	8000e60 <ADC_Enable>
 8000f34:	bb40      	cbnz	r0, 8000f88 <HAL_ADC_Start+0x78>
 8000f36:	6d63      	ldr	r3, [r4, #84]	@ 0x54
 8000f38:	f423 6370 	bic.w	r3, r3, #3840	@ 0xf00
 8000f3c:	f023 0301 	bic.w	r3, r3, #1
 8000f40:	f443 7380 	orr.w	r3, r3, #256	@ 0x100
 8000f44:	6563      	str	r3, [r4, #84]	@ 0x54
 8000f46:	6d63      	ldr	r3, [r4, #84]	@ 0x54
 8000f48:	04da      	lsls	r2, r3, #19
 8000f4a:	bf48      	it	mi
 8000f4c:	6da3      	ldrmi	r3, [r4, #88]	@ 0x58
 8000f4e:	6822      	ldr	r2, [r4, #0]
 8000f50:	bf52      	itee	pl
 8000f52:	65a0      	strpl	r0, [r4, #88]	@ 0x58
 8000f54:	f023 0306 	bicmi.w	r3, r3, #6
 8000f58:	65a3      	strmi	r3, [r4, #88]	@ 0x58
 8000f5a:	231c      	movs	r3, #28
 8000f5c:	6013      	str	r3, [r2, #0]
 8000f5e:	2300      	movs	r3, #0
 8000f60:	f884 3050 	strb.w	r3, [r4, #80]	@ 0x50
 8000f64:	68d3      	ldr	r3, [r2, #12]
 8000f66:	019b      	lsls	r3, r3, #6
 8000f68:	bf41      	itttt	mi
 8000f6a:	6d63      	ldrmi	r3, [r4, #84]	@ 0x54
 8000f6c:	f423 5340 	bicmi.w	r3, r3, #12288	@ 0x3000
 8000f70:	f443 5380 	orrmi.w	r3, r3, #4096	@ 0x1000
 8000f74:	6563      	strmi	r3, [r4, #84]	@ 0x54
 8000f76:	6893      	ldr	r3, [r2, #8]
 8000f78:	f023 4300 	bic.w	r3, r3, #2147483648	@ 0x80000000
 8000f7c:	f023 033f 	bic.w	r3, r3, #63	@ 0x3f
 8000f80:	f043 0304 	orr.w	r3, r3, #4
 8000f84:	6093      	str	r3, [r2, #8]
 8000f86:	bd38      	pop	{r3, r4, r5, pc}
 8000f88:	f884 5050 	strb.w	r5, [r4, #80]	@ 0x50
 8000f8c:	e7fb      	b.n	8000f86 <HAL_ADC_Start+0x76>
 8000f8e:	2002      	movs	r0, #2
 8000f90:	e7f9      	b.n	8000f86 <HAL_ADC_Start+0x76>

08000f92 <ADC_Disable>:
 8000f92:	6802      	ldr	r2, [r0, #0]
 8000f94:	b538      	push	{r3, r4, r5, lr}
 8000f96:	6893      	ldr	r3, [r2, #8]
 8000f98:	6891      	ldr	r1, [r2, #8]
 8000f9a:	4604      	mov	r4, r0
 8000f9c:	07c8      	lsls	r0, r1, #31
 8000f9e:	d401      	bmi.n	8000fa4 <ADC_Disable+0x12>
 8000fa0:	2000      	movs	r0, #0
 8000fa2:	bd38      	pop	{r3, r4, r5, pc}
 8000fa4:	0799      	lsls	r1, r3, #30
 8000fa6:	d4fb      	bmi.n	8000fa0 <ADC_Disable+0xe>
 8000fa8:	6893      	ldr	r3, [r2, #8]
 8000faa:	f003 030d 	and.w	r3, r3, #13
 8000fae:	2b01      	cmp	r3, #1
 8000fb0:	d119      	bne.n	8000fe6 <ADC_Disable+0x54>
 8000fb2:	6893      	ldr	r3, [r2, #8]
 8000fb4:	f023 4300 	bic.w	r3, r3, #2147483648	@ 0x80000000
 8000fb8:	f023 033f 	bic.w	r3, r3, #63	@ 0x3f
 8000fbc:	f043 0302 	orr.w	r3, r3, #2
 8000fc0:	6093      	str	r3, [r2, #8]
 8000fc2:	2303      	movs	r3, #3
 8000fc4:	6013      	str	r3, [r2, #0]
 8000fc6:	f7ff fbd1 	bl	800076c <HAL_GetTick>
 8000fca:	4605      	mov	r5, r0
 8000fcc:	6823      	ldr	r3, [r4, #0]
 8000fce:	689b      	ldr	r3, [r3, #8]
 8000fd0:	07db      	lsls	r3, r3, #31
 8000fd2:	d5e5      	bpl.n	8000fa0 <ADC_Disable+0xe>
 8000fd4:	f7ff fbca 	bl	800076c <HAL_GetTick>
 8000fd8:	1b40      	subs	r0, r0, r5
 8000fda:	2802      	cmp	r0, #2
 8000fdc:	d9f6      	bls.n	8000fcc <ADC_Disable+0x3a>
 8000fde:	6823      	ldr	r3, [r4, #0]
 8000fe0:	689b      	ldr	r3, [r3, #8]
 8000fe2:	07da      	lsls	r2, r3, #31
 8000fe4:	d5f2      	bpl.n	8000fcc <ADC_Disable+0x3a>
 8000fe6:	6d63      	ldr	r3, [r4, #84]	@ 0x54
 8000fe8:	f043 0310 	orr.w	r3, r3, #16
 8000fec:	6563      	str	r3, [r4, #84]	@ 0x54
 8000fee:	6da3      	ldr	r3, [r4, #88]	@ 0x58
 8000ff0:	f043 0301 	orr.w	r3, r3, #1
 8000ff4:	65a3      	str	r3, [r4, #88]	@ 0x58
 8000ff6:	2001      	movs	r0, #1
 8000ff8:	e7d3      	b.n	8000fa2 <ADC_Disable+0x10>

08000ffa <HAL_ADC_Stop>:
 8000ffa:	b510      	push	{r4, lr}
 8000ffc:	f890 3050 	ldrb.w	r3, [r0, #80]	@ 0x50
 8001000:	2b01      	cmp	r3, #1
 8001002:	4604      	mov	r4, r0
 8001004:	d016      	beq.n	8001034 <HAL_ADC_Stop+0x3a>
 8001006:	2301      	movs	r3, #1
 8001008:	f880 3050 	strb.w	r3, [r0, #80]	@ 0x50
 800100c:	2103      	movs	r1, #3
 800100e:	f7ff fec1 	bl	8000d94 <ADC_ConversionStop>
 8001012:	b958      	cbnz	r0, 800102c <HAL_ADC_Stop+0x32>
 8001014:	4620      	mov	r0, r4
 8001016:	f7ff ffbc 	bl	8000f92 <ADC_Disable>
 800101a:	b938      	cbnz	r0, 800102c <HAL_ADC_Stop+0x32>
 800101c:	6d63      	ldr	r3, [r4, #84]	@ 0x54
 800101e:	f423 5388 	bic.w	r3, r3, #4352	@ 0x1100
 8001022:	f023 0301 	bic.w	r3, r3, #1
 8001026:	f043 0301 	orr.w	r3, r3, #1
 800102a:	6563      	str	r3, [r4, #84]	@ 0x54
 800102c:	2300      	movs	r3, #0
 800102e:	f884 3050 	strb.w	r3, [r4, #80]	@ 0x50
 8001032:	bd10      	pop	{r4, pc}
 8001034:	2002      	movs	r0, #2
 8001036:	e7fc      	b.n	8001032 <HAL_ADC_Stop+0x38>

08001038 <HAL_NVIC_SetPriorityGrouping>:
 8001038:	4907      	ldr	r1, [pc, #28]	@ (8001058 <HAL_NVIC_SetPriorityGrouping+0x20>)
 800103a:	68ca      	ldr	r2, [r1, #12]
 800103c:	f422 62e0 	bic.w	r2, r2, #1792	@ 0x700
 8001040:	0203      	lsls	r3, r0, #8
 8001042:	0412      	lsls	r2, r2, #16
 8001044:	f403 63e0 	and.w	r3, r3, #1792	@ 0x700
 8001048:	0c12      	lsrs	r2, r2, #16
 800104a:	4313      	orrs	r3, r2
 800104c:	f043 63bf 	orr.w	r3, r3, #100139008	@ 0x5f80000
 8001050:	f443 3300 	orr.w	r3, r3, #131072	@ 0x20000
 8001054:	60cb      	str	r3, [r1, #12]
 8001056:	4770      	bx	lr
 8001058:	e000ed00 	.word	0xe000ed00

0800105c <HAL_NVIC_SetPriority>:
 800105c:	4b16      	ldr	r3, [pc, #88]	@ (80010b8 <HAL_NVIC_SetPriority+0x5c>)
 800105e:	b530      	push	{r4, r5, lr}
 8001060:	68dc      	ldr	r4, [r3, #12]
 8001062:	f3c4 2402 	ubfx	r4, r4, #8, #3
 8001066:	f1c4 0307 	rsb	r3, r4, #7
 800106a:	1d25      	adds	r5, r4, #4
 800106c:	2b04      	cmp	r3, #4
 800106e:	bf28      	it	cs
 8001070:	2304      	movcs	r3, #4
 8001072:	2d06      	cmp	r5, #6
 8001074:	f04f 35ff 	mov.w	r5, #4294967295
 8001078:	bf8c      	ite	hi
 800107a:	3c03      	subhi	r4, #3
 800107c:	2400      	movls	r4, #0
 800107e:	fa05 f303 	lsl.w	r3, r5, r3
 8001082:	ea21 0303 	bic.w	r3, r1, r3
 8001086:	40a5      	lsls	r5, r4
 8001088:	ea22 0205 	bic.w	r2, r2, r5
 800108c:	40a3      	lsls	r3, r4
 800108e:	2800      	cmp	r0, #0
 8001090:	ea43 0302 	orr.w	r3, r3, r2
 8001094:	bfac      	ite	ge
 8001096:	f100 4060 	addge.w	r0, r0, #3758096384	@ 0xe0000000
 800109a:	4a08      	ldrlt	r2, [pc, #32]	@ (80010bc <HAL_NVIC_SetPriority+0x60>)
 800109c:	ea4f 1303 	mov.w	r3, r3, lsl #4
 80010a0:	bfb8      	it	lt
 80010a2:	f000 000f 	andlt.w	r0, r0, #15
 80010a6:	b2db      	uxtb	r3, r3
 80010a8:	bfaa      	itet	ge
 80010aa:	f500 4061 	addge.w	r0, r0, #57600	@ 0xe100
 80010ae:	5413      	strblt	r3, [r2, r0]
 80010b0:	f880 3300 	strbge.w	r3, [r0, #768]	@ 0x300
 80010b4:	bd30      	pop	{r4, r5, pc}
 80010b6:	bf00      	nop
 80010b8:	e000ed00 	.word	0xe000ed00
 80010bc:	e000ed14 	.word	0xe000ed14

080010c0 <HAL_NVIC_EnableIRQ>:
 80010c0:	2800      	cmp	r0, #0
 80010c2:	db07      	blt.n	80010d4 <HAL_NVIC_EnableIRQ+0x14>
 80010c4:	4a04      	ldr	r2, [pc, #16]	@ (80010d8 <HAL_NVIC_EnableIRQ+0x18>)
 80010c6:	0941      	lsrs	r1, r0, #5
 80010c8:	2301      	movs	r3, #1
 80010ca:	f000 001f 	and.w	r0, r0, #31
 80010ce:	4083      	lsls	r3, r0
 80010d0:	f842 3021 	str.w	r3, [r2, r1, lsl #2]
 80010d4:	4770      	bx	lr
 80010d6:	bf00      	nop
 80010d8:	e000e100 	.word	0xe000e100

080010dc <HAL_SYSTICK_Config>:
 80010dc:	3801      	subs	r0, #1
 80010de:	f1b0 7f80 	cmp.w	r0, #16777216	@ 0x1000000
 80010e2:	d20b      	bcs.n	80010fc <HAL_SYSTICK_Config+0x20>
 80010e4:	f04f 23e0 	mov.w	r3, #3758153728	@ 0xe000e000
 80010e8:	4a05      	ldr	r2, [pc, #20]	@ (8001100 <HAL_SYSTICK_Config+0x24>)
 80010ea:	6158      	str	r0, [r3, #20]
 80010ec:	21f0      	movs	r1, #240	@ 0xf0
 80010ee:	f882 1023 	strb.w	r1, [r2, #35]	@ 0x23
 80010f2:	2000      	movs	r0, #0
 80010f4:	2207      	movs	r2, #7
 80010f6:	6198      	str	r0, [r3, #24]
 80010f8:	611a      	str	r2, [r3, #16]
 80010fa:	4770      	bx	lr
 80010fc:	2001      	movs	r0, #1
 80010fe:	4770      	bx	lr
 8001100:	e000ed00 	.word	0xe000ed00

08001104 <HAL_GPIO_Init>:
 8001104:	e92d 4ff7 	stmdb	sp!, {r0, r1, r2, r4, r5, r6, r7, r8, r9, sl, fp, lr}
 8001108:	f8df 917c 	ldr.w	r9, [pc, #380]	@ 8001288 <HAL_GPIO_Init+0x184>
 800110c:	4c5c      	ldr	r4, [pc, #368]	@ (8001280 <HAL_GPIO_Init+0x17c>)
 800110e:	2300      	movs	r3, #0
 8001110:	680a      	ldr	r2, [r1, #0]
 8001112:	fa32 f503 	lsrs.w	r5, r2, r3
 8001116:	d102      	bne.n	800111e <HAL_GPIO_Init+0x1a>
 8001118:	b003      	add	sp, #12
 800111a:	e8bd 8ff0 	ldmia.w	sp!, {r4, r5, r6, r7, r8, r9, sl, fp, pc}
 800111e:	2501      	movs	r5, #1
 8001120:	fa05 f803 	lsl.w	r8, r5, r3
 8001124:	ea18 0202 	ands.w	r2, r8, r2
 8001128:	f000 80a0 	beq.w	800126c <HAL_GPIO_Init+0x168>
 800112c:	684e      	ldr	r6, [r1, #4]
 800112e:	2703      	movs	r7, #3
 8001130:	f006 0503 	and.w	r5, r6, #3
 8001134:	ea4f 0e43 	mov.w	lr, r3, lsl #1
 8001138:	fa07 fc0e 	lsl.w	ip, r7, lr
 800113c:	1e6f      	subs	r7, r5, #1
 800113e:	2f01      	cmp	r7, #1
 8001140:	ea6f 0c0c 	mvn.w	ip, ip
 8001144:	d834      	bhi.n	80011b0 <HAL_GPIO_Init+0xac>
 8001146:	6887      	ldr	r7, [r0, #8]
 8001148:	ea07 0a0c 	and.w	sl, r7, ip
 800114c:	68cf      	ldr	r7, [r1, #12]
 800114e:	fa07 f70e 	lsl.w	r7, r7, lr
 8001152:	ea47 070a 	orr.w	r7, r7, sl
 8001156:	6087      	str	r7, [r0, #8]
 8001158:	6847      	ldr	r7, [r0, #4]
 800115a:	ea27 0808 	bic.w	r8, r7, r8
 800115e:	f3c6 1700 	ubfx	r7, r6, #4, #1
 8001162:	409f      	lsls	r7, r3
 8001164:	ea47 0708 	orr.w	r7, r7, r8
 8001168:	6047      	str	r7, [r0, #4]
 800116a:	68c7      	ldr	r7, [r0, #12]
 800116c:	ea07 080c 	and.w	r8, r7, ip
 8001170:	688f      	ldr	r7, [r1, #8]
 8001172:	fa07 f70e 	lsl.w	r7, r7, lr
 8001176:	ea47 0708 	orr.w	r7, r7, r8
 800117a:	2d02      	cmp	r5, #2
 800117c:	60c7      	str	r7, [r0, #12]
 800117e:	d119      	bne.n	80011b4 <HAL_GPIO_Init+0xb0>
 8001180:	ea4f 08d3 	mov.w	r8, r3, lsr #3
 8001184:	eb00 0888 	add.w	r8, r0, r8, lsl #2
 8001188:	f003 0a07 	and.w	sl, r3, #7
 800118c:	f8d8 7020 	ldr.w	r7, [r8, #32]
 8001190:	ea4f 0a8a 	mov.w	sl, sl, lsl #2
 8001194:	f04f 0b0f 	mov.w	fp, #15
 8001198:	fa0b fb0a 	lsl.w	fp, fp, sl
 800119c:	ea27 0b0b 	bic.w	fp, r7, fp
 80011a0:	690f      	ldr	r7, [r1, #16]
 80011a2:	fa07 f70a 	lsl.w	r7, r7, sl
 80011a6:	ea47 070b 	orr.w	r7, r7, fp
 80011aa:	f8c8 7020 	str.w	r7, [r8, #32]
 80011ae:	e001      	b.n	80011b4 <HAL_GPIO_Init+0xb0>
 80011b0:	2d03      	cmp	r5, #3
 80011b2:	d1da      	bne.n	800116a <HAL_GPIO_Init+0x66>
 80011b4:	6807      	ldr	r7, [r0, #0]
 80011b6:	fa05 f50e 	lsl.w	r5, r5, lr
 80011ba:	ea07 070c 	and.w	r7, r7, ip
 80011be:	433d      	orrs	r5, r7
 80011c0:	f416 3f40 	tst.w	r6, #196608	@ 0x30000
 80011c4:	6005      	str	r5, [r0, #0]
 80011c6:	d051      	beq.n	800126c <HAL_GPIO_Init+0x168>
 80011c8:	f8d9 5060 	ldr.w	r5, [r9, #96]	@ 0x60
 80011cc:	f045 0501 	orr.w	r5, r5, #1
 80011d0:	f8c9 5060 	str.w	r5, [r9, #96]	@ 0x60
 80011d4:	f8d9 5060 	ldr.w	r5, [r9, #96]	@ 0x60
 80011d8:	f023 0703 	bic.w	r7, r3, #3
 80011dc:	f107 4780 	add.w	r7, r7, #1073741824	@ 0x40000000
 80011e0:	f005 0501 	and.w	r5, r5, #1
 80011e4:	f507 3780 	add.w	r7, r7, #65536	@ 0x10000
 80011e8:	9501      	str	r5, [sp, #4]
 80011ea:	f003 0c03 	and.w	ip, r3, #3
 80011ee:	9d01      	ldr	r5, [sp, #4]
 80011f0:	68bd      	ldr	r5, [r7, #8]
 80011f2:	ea4f 0c8c 	mov.w	ip, ip, lsl #2
 80011f6:	f04f 0e0f 	mov.w	lr, #15
 80011fa:	fa0e fe0c 	lsl.w	lr, lr, ip
 80011fe:	f1b0 4f90 	cmp.w	r0, #1207959552	@ 0x48000000
 8001202:	ea25 0e0e 	bic.w	lr, r5, lr
 8001206:	d033      	beq.n	8001270 <HAL_GPIO_Init+0x16c>
 8001208:	4d1e      	ldr	r5, [pc, #120]	@ (8001284 <HAL_GPIO_Init+0x180>)
 800120a:	42a8      	cmp	r0, r5
 800120c:	d032      	beq.n	8001274 <HAL_GPIO_Init+0x170>
 800120e:	f505 6580 	add.w	r5, r5, #1024	@ 0x400
 8001212:	42a8      	cmp	r0, r5
 8001214:	d030      	beq.n	8001278 <HAL_GPIO_Init+0x174>
 8001216:	f505 6580 	add.w	r5, r5, #1024	@ 0x400
 800121a:	42a8      	cmp	r0, r5
 800121c:	d02e      	beq.n	800127c <HAL_GPIO_Init+0x178>
 800121e:	f505 6580 	add.w	r5, r5, #1024	@ 0x400
 8001222:	42a8      	cmp	r0, r5
 8001224:	bf14      	ite	ne
 8001226:	2507      	movne	r5, #7
 8001228:	2504      	moveq	r5, #4
 800122a:	fa05 f50c 	lsl.w	r5, r5, ip
 800122e:	ea45 050e 	orr.w	r5, r5, lr
 8001232:	60bd      	str	r5, [r7, #8]
 8001234:	68a5      	ldr	r5, [r4, #8]
 8001236:	43d7      	mvns	r7, r2
 8001238:	f416 1f80 	tst.w	r6, #1048576	@ 0x100000
 800123c:	bf0c      	ite	eq
 800123e:	403d      	andeq	r5, r7
 8001240:	4315      	orrne	r5, r2
 8001242:	60a5      	str	r5, [r4, #8]
 8001244:	68e5      	ldr	r5, [r4, #12]
 8001246:	f416 1f00 	tst.w	r6, #2097152	@ 0x200000
 800124a:	bf0c      	ite	eq
 800124c:	403d      	andeq	r5, r7
 800124e:	4315      	orrne	r5, r2
 8001250:	60e5      	str	r5, [r4, #12]
 8001252:	6865      	ldr	r5, [r4, #4]
 8001254:	f416 3f00 	tst.w	r6, #131072	@ 0x20000
 8001258:	bf0c      	ite	eq
 800125a:	403d      	andeq	r5, r7
 800125c:	4315      	orrne	r5, r2
 800125e:	6065      	str	r5, [r4, #4]
 8001260:	6825      	ldr	r5, [r4, #0]
 8001262:	03f6      	lsls	r6, r6, #15
 8001264:	bf54      	ite	pl
 8001266:	403d      	andpl	r5, r7
 8001268:	4315      	orrmi	r5, r2
 800126a:	6025      	str	r5, [r4, #0]
 800126c:	3301      	adds	r3, #1
 800126e:	e74f      	b.n	8001110 <HAL_GPIO_Init+0xc>
 8001270:	2500      	movs	r5, #0
 8001272:	e7da      	b.n	800122a <HAL_GPIO_Init+0x126>
 8001274:	2501      	movs	r5, #1
 8001276:	e7d8      	b.n	800122a <HAL_GPIO_Init+0x126>
 8001278:	2502      	movs	r5, #2
 800127a:	e7d6      	b.n	800122a <HAL_GPIO_Init+0x126>
 800127c:	2503      	movs	r5, #3
 800127e:	e7d4      	b.n	800122a <HAL_GPIO_Init+0x126>
 8001280:	40010400 	.word	0x40010400
 8001284:	48000400 	.word	0x48000400
 8001288:	40021000 	.word	0x40021000

0800128c <HAL_GPIO_WritePin>:
 800128c:	b10a      	cbz	r2, 8001292 <HAL_GPIO_WritePin+0x6>
 800128e:	6181      	str	r1, [r0, #24]
 8001290:	4770      	bx	lr
 8001292:	6281      	str	r1, [r0, #40]	@ 0x28
 8001294:	4770      	bx	lr
	...

08001298 <HAL_GPIO_EXTI_IRQHandler>:
 8001298:	4a04      	ldr	r2, [pc, #16]	@ (80012ac <HAL_GPIO_EXTI_IRQHandler+0x14>)
 800129a:	6951      	ldr	r1, [r2, #20]
 800129c:	4201      	tst	r1, r0
 800129e:	b508      	push	{r3, lr}
 80012a0:	d002      	beq.n	80012a8 <HAL_GPIO_EXTI_IRQHandler+0x10>
 80012a2:	6150      	str	r0, [r2, #20]
 80012a4:	f7ff f94a 	bl	800053c <HAL_GPIO_EXTI_Callback>
 80012a8:	bd08      	pop	{r3, pc}
 80012aa:	bf00      	nop
 80012ac:	40010400 	.word	0x40010400

080012b0 <I2C_Flush_TXDR>:
 80012b0:	6803      	ldr	r3, [r0, #0]
 80012b2:	699a      	ldr	r2, [r3, #24]
 80012b4:	0791      	lsls	r1, r2, #30
 80012b6:	bf44      	itt	mi
 80012b8:	2200      	movmi	r2, #0
 80012ba:	629a      	strmi	r2, [r3, #40]	@ 0x28
 80012bc:	699a      	ldr	r2, [r3, #24]
 80012be:	07d2      	lsls	r2, r2, #31
 80012c0:	bf5e      	ittt	pl
 80012c2:	699a      	ldrpl	r2, [r3, #24]
 80012c4:	f042 0201 	orrpl.w	r2, r2, #1
 80012c8:	619a      	strpl	r2, [r3, #24]
 80012ca:	4770      	bx	lr

080012cc <I2C_TransferConfig>:
 80012cc:	b530      	push	{r4, r5, lr}
 80012ce:	9d03      	ldr	r5, [sp, #12]
 80012d0:	6804      	ldr	r4, [r0, #0]
 80012d2:	432b      	orrs	r3, r5
 80012d4:	ea43 4302 	orr.w	r3, r3, r2, lsl #16
 80012d8:	4a06      	ldr	r2, [pc, #24]	@ (80012f4 <I2C_TransferConfig+0x28>)
 80012da:	6860      	ldr	r0, [r4, #4]
 80012dc:	f3c1 0109 	ubfx	r1, r1, #0, #10
 80012e0:	430b      	orrs	r3, r1
 80012e2:	ea42 5255 	orr.w	r2, r2, r5, lsr #21
 80012e6:	f023 4300 	bic.w	r3, r3, #2147483648	@ 0x80000000
 80012ea:	ea20 0002 	bic.w	r0, r0, r2
 80012ee:	4303      	orrs	r3, r0
 80012f0:	6063      	str	r3, [r4, #4]
 80012f2:	bd30      	pop	{r4, r5, pc}
 80012f4:	03ff63ff 	.word	0x03ff63ff

080012f8 <I2C_IsErrorOccurred>:
 80012f8:	6803      	ldr	r3, [r0, #0]
 80012fa:	e92d 41f0 	stmdb	sp!, {r4, r5, r6, r7, r8, lr}
 80012fe:	699c      	ldr	r4, [r3, #24]
 8001300:	f014 0410 	ands.w	r4, r4, #16
 8001304:	4605      	mov	r5, r0
 8001306:	460f      	mov	r7, r1
 8001308:	4616      	mov	r6, r2
 800130a:	d06f      	beq.n	80013ec <I2C_IsErrorOccurred+0xf4>
 800130c:	2210      	movs	r2, #16
 800130e:	2400      	movs	r4, #0
 8001310:	61da      	str	r2, [r3, #28]
 8001312:	46a0      	mov	r8, r4
 8001314:	682b      	ldr	r3, [r5, #0]
 8001316:	699a      	ldr	r2, [r3, #24]
 8001318:	0690      	lsls	r0, r2, #26
 800131a:	d461      	bmi.n	80013e0 <I2C_IsErrorOccurred+0xe8>
 800131c:	f1b8 0f00 	cmp.w	r8, #0
 8001320:	d035      	beq.n	800138e <I2C_IsErrorOccurred+0x96>
 8001322:	f044 0404 	orr.w	r4, r4, #4
 8001326:	2001      	movs	r0, #1
 8001328:	682e      	ldr	r6, [r5, #0]
 800132a:	69b3      	ldr	r3, [r6, #24]
 800132c:	05d9      	lsls	r1, r3, #23
 800132e:	bf41      	itttt	mi
 8001330:	f44f 7280 	movmi.w	r2, #256	@ 0x100
 8001334:	61f2      	strmi	r2, [r6, #28]
 8001336:	f044 0401 	orrmi.w	r4, r4, #1
 800133a:	2001      	movmi	r0, #1
 800133c:	055a      	lsls	r2, r3, #21
 800133e:	bf41      	itttt	mi
 8001340:	f44f 6280 	movmi.w	r2, #1024	@ 0x400
 8001344:	f044 0408 	orrmi.w	r4, r4, #8
 8001348:	61f2      	strmi	r2, [r6, #28]
 800134a:	2001      	movmi	r0, #1
 800134c:	059b      	lsls	r3, r3, #22
 800134e:	d54f      	bpl.n	80013f0 <I2C_IsErrorOccurred+0xf8>
 8001350:	f44f 7300 	mov.w	r3, #512	@ 0x200
 8001354:	f044 0402 	orr.w	r4, r4, #2
 8001358:	61f3      	str	r3, [r6, #28]
 800135a:	4628      	mov	r0, r5
 800135c:	f7ff ffa8 	bl	80012b0 <I2C_Flush_TXDR>
 8001360:	6873      	ldr	r3, [r6, #4]
 8001362:	f023 73ff 	bic.w	r3, r3, #33423360	@ 0x1fe0000
 8001366:	f423 338b 	bic.w	r3, r3, #71168	@ 0x11600
 800136a:	f423 73ff 	bic.w	r3, r3, #510	@ 0x1fe
 800136e:	f023 0301 	bic.w	r3, r3, #1
 8001372:	6073      	str	r3, [r6, #4]
 8001374:	6c6b      	ldr	r3, [r5, #68]	@ 0x44
 8001376:	4323      	orrs	r3, r4
 8001378:	646b      	str	r3, [r5, #68]	@ 0x44
 800137a:	2320      	movs	r3, #32
 800137c:	f885 3041 	strb.w	r3, [r5, #65]	@ 0x41
 8001380:	2300      	movs	r3, #0
 8001382:	f885 3042 	strb.w	r3, [r5, #66]	@ 0x42
 8001386:	f885 3040 	strb.w	r3, [r5, #64]	@ 0x40
 800138a:	2001      	movs	r0, #1
 800138c:	e032      	b.n	80013f4 <I2C_IsErrorOccurred+0xfc>
 800138e:	1c7a      	adds	r2, r7, #1
 8001390:	d0c1      	beq.n	8001316 <I2C_IsErrorOccurred+0x1e>
 8001392:	f7ff f9eb 	bl	800076c <HAL_GetTick>
 8001396:	1b80      	subs	r0, r0, r6
 8001398:	42b8      	cmp	r0, r7
 800139a:	d801      	bhi.n	80013a0 <I2C_IsErrorOccurred+0xa8>
 800139c:	2f00      	cmp	r7, #0
 800139e:	d1b9      	bne.n	8001314 <I2C_IsErrorOccurred+0x1c>
 80013a0:	682b      	ldr	r3, [r5, #0]
 80013a2:	6859      	ldr	r1, [r3, #4]
 80013a4:	f895 2042 	ldrb.w	r2, [r5, #66]	@ 0x42
 80013a8:	6998      	ldr	r0, [r3, #24]
 80013aa:	0400      	lsls	r0, r0, #16
 80013ac:	b2d2      	uxtb	r2, r2
 80013ae:	d50a      	bpl.n	80013c6 <I2C_IsErrorOccurred+0xce>
 80013b0:	0449      	lsls	r1, r1, #17
 80013b2:	d408      	bmi.n	80013c6 <I2C_IsErrorOccurred+0xce>
 80013b4:	2a20      	cmp	r2, #32
 80013b6:	d006      	beq.n	80013c6 <I2C_IsErrorOccurred+0xce>
 80013b8:	685a      	ldr	r2, [r3, #4]
 80013ba:	f442 4280 	orr.w	r2, r2, #16384	@ 0x4000
 80013be:	605a      	str	r2, [r3, #4]
 80013c0:	f7ff f9d4 	bl	800076c <HAL_GetTick>
 80013c4:	4606      	mov	r6, r0
 80013c6:	682b      	ldr	r3, [r5, #0]
 80013c8:	699b      	ldr	r3, [r3, #24]
 80013ca:	069b      	lsls	r3, r3, #26
 80013cc:	d4a2      	bmi.n	8001314 <I2C_IsErrorOccurred+0x1c>
 80013ce:	f7ff f9cd 	bl	800076c <HAL_GetTick>
 80013d2:	1b80      	subs	r0, r0, r6
 80013d4:	2819      	cmp	r0, #25
 80013d6:	d9f6      	bls.n	80013c6 <I2C_IsErrorOccurred+0xce>
 80013d8:	2420      	movs	r4, #32
 80013da:	f04f 0801 	mov.w	r8, #1
 80013de:	e799      	b.n	8001314 <I2C_IsErrorOccurred+0x1c>
 80013e0:	f1b8 0f00 	cmp.w	r8, #0
 80013e4:	d19d      	bne.n	8001322 <I2C_IsErrorOccurred+0x2a>
 80013e6:	2220      	movs	r2, #32
 80013e8:	61da      	str	r2, [r3, #28]
 80013ea:	e79a      	b.n	8001322 <I2C_IsErrorOccurred+0x2a>
 80013ec:	4620      	mov	r0, r4
 80013ee:	e79b      	b.n	8001328 <I2C_IsErrorOccurred+0x30>
 80013f0:	2800      	cmp	r0, #0
 80013f2:	d1b2      	bne.n	800135a <I2C_IsErrorOccurred+0x62>
 80013f4:	e8bd 81f0 	ldmia.w	sp!, {r4, r5, r6, r7, r8, pc}

080013f8 <I2C_WaitOnTXISFlagUntilTimeout>:
 80013f8:	b570      	push	{r4, r5, r6, lr}
 80013fa:	4604      	mov	r4, r0
 80013fc:	460d      	mov	r5, r1
 80013fe:	4616      	mov	r6, r2
 8001400:	6823      	ldr	r3, [r4, #0]
 8001402:	699b      	ldr	r3, [r3, #24]
 8001404:	079b      	lsls	r3, r3, #30
 8001406:	d501      	bpl.n	800140c <I2C_WaitOnTXISFlagUntilTimeout+0x14>
 8001408:	2000      	movs	r0, #0
 800140a:	e01f      	b.n	800144c <I2C_WaitOnTXISFlagUntilTimeout+0x54>
 800140c:	4632      	mov	r2, r6
 800140e:	4629      	mov	r1, r5
 8001410:	4620      	mov	r0, r4
 8001412:	f7ff ff71 	bl	80012f8 <I2C_IsErrorOccurred>
 8001416:	b9c0      	cbnz	r0, 800144a <I2C_WaitOnTXISFlagUntilTimeout+0x52>
 8001418:	1c6a      	adds	r2, r5, #1
 800141a:	d0f1      	beq.n	8001400 <I2C_WaitOnTXISFlagUntilTimeout+0x8>
 800141c:	f7ff f9a6 	bl	800076c <HAL_GetTick>
 8001420:	1b80      	subs	r0, r0, r6
 8001422:	42a8      	cmp	r0, r5
 8001424:	d801      	bhi.n	800142a <I2C_WaitOnTXISFlagUntilTimeout+0x32>
 8001426:	2d00      	cmp	r5, #0
 8001428:	d1ea      	bne.n	8001400 <I2C_WaitOnTXISFlagUntilTimeout+0x8>
 800142a:	6823      	ldr	r3, [r4, #0]
 800142c:	699b      	ldr	r3, [r3, #24]
 800142e:	f013 0302 	ands.w	r3, r3, #2
 8001432:	d1e5      	bne.n	8001400 <I2C_WaitOnTXISFlagUntilTimeout+0x8>
 8001434:	6c62      	ldr	r2, [r4, #68]	@ 0x44
 8001436:	f884 3040 	strb.w	r3, [r4, #64]	@ 0x40
 800143a:	f042 0220 	orr.w	r2, r2, #32
 800143e:	6462      	str	r2, [r4, #68]	@ 0x44
 8001440:	2220      	movs	r2, #32
 8001442:	f884 2041 	strb.w	r2, [r4, #65]	@ 0x41
 8001446:	f884 3042 	strb.w	r3, [r4, #66]	@ 0x42
 800144a:	2001      	movs	r0, #1
 800144c:	bd70      	pop	{r4, r5, r6, pc}

0800144e <I2C_WaitOnFlagUntilTimeout>:
 800144e:	e92d 41f0 	stmdb	sp!, {r4, r5, r6, r7, r8, lr}
 8001452:	f8dd 8018 	ldr.w	r8, [sp, #24]
 8001456:	4604      	mov	r4, r0
 8001458:	460f      	mov	r7, r1
 800145a:	4616      	mov	r6, r2
 800145c:	461d      	mov	r5, r3
 800145e:	6823      	ldr	r3, [r4, #0]
 8001460:	699b      	ldr	r3, [r3, #24]
 8001462:	ea37 0303 	bics.w	r3, r7, r3
 8001466:	bf0c      	ite	eq
 8001468:	2301      	moveq	r3, #1
 800146a:	2300      	movne	r3, #0
 800146c:	42b3      	cmp	r3, r6
 800146e:	d001      	beq.n	8001474 <I2C_WaitOnFlagUntilTimeout+0x26>
 8001470:	2000      	movs	r0, #0
 8001472:	e025      	b.n	80014c0 <I2C_WaitOnFlagUntilTimeout+0x72>
 8001474:	4642      	mov	r2, r8
 8001476:	4629      	mov	r1, r5
 8001478:	4620      	mov	r0, r4
 800147a:	f7ff ff3d 	bl	80012f8 <I2C_IsErrorOccurred>
 800147e:	b9f0      	cbnz	r0, 80014be <I2C_WaitOnFlagUntilTimeout+0x70>
 8001480:	1c6b      	adds	r3, r5, #1
 8001482:	d0ec      	beq.n	800145e <I2C_WaitOnFlagUntilTimeout+0x10>
 8001484:	f7ff f972 	bl	800076c <HAL_GetTick>
 8001488:	eba0 0008 	sub.w	r0, r0, r8
 800148c:	42a8      	cmp	r0, r5
 800148e:	d801      	bhi.n	8001494 <I2C_WaitOnFlagUntilTimeout+0x46>
 8001490:	2d00      	cmp	r5, #0
 8001492:	d1e4      	bne.n	800145e <I2C_WaitOnFlagUntilTimeout+0x10>
 8001494:	6823      	ldr	r3, [r4, #0]
 8001496:	699b      	ldr	r3, [r3, #24]
 8001498:	ea37 0303 	bics.w	r3, r7, r3
 800149c:	bf0c      	ite	eq
 800149e:	2301      	moveq	r3, #1
 80014a0:	2300      	movne	r3, #0
 80014a2:	42b3      	cmp	r3, r6
 80014a4:	d1db      	bne.n	800145e <I2C_WaitOnFlagUntilTimeout+0x10>
 80014a6:	6c63      	ldr	r3, [r4, #68]	@ 0x44
 80014a8:	f043 0320 	orr.w	r3, r3, #32
 80014ac:	6463      	str	r3, [r4, #68]	@ 0x44
 80014ae:	2320      	movs	r3, #32
 80014b0:	f884 3041 	strb.w	r3, [r4, #65]	@ 0x41
 80014b4:	2300      	movs	r3, #0
 80014b6:	f884 3042 	strb.w	r3, [r4, #66]	@ 0x42
 80014ba:	f884 3040 	strb.w	r3, [r4, #64]	@ 0x40
 80014be:	2001      	movs	r0, #1
 80014c0:	e8bd 81f0 	ldmia.w	sp!, {r4, r5, r6, r7, r8, pc}

080014c4 <I2C_WaitOnSTOPFlagUntilTimeout>:
 80014c4:	b570      	push	{r4, r5, r6, lr}
 80014c6:	4604      	mov	r4, r0
 80014c8:	460d      	mov	r5, r1
 80014ca:	4616      	mov	r6, r2
 80014cc:	6823      	ldr	r3, [r4, #0]
 80014ce:	699b      	ldr	r3, [r3, #24]
 80014d0:	069b      	lsls	r3, r3, #26
 80014d2:	d501      	bpl.n	80014d8 <I2C_WaitOnSTOPFlagUntilTimeout+0x14>
 80014d4:	2000      	movs	r0, #0
 80014d6:	e01d      	b.n	8001514 <I2C_WaitOnSTOPFlagUntilTimeout+0x50>
 80014d8:	4632      	mov	r2, r6
 80014da:	4629      	mov	r1, r5
 80014dc:	4620      	mov	r0, r4
 80014de:	f7ff ff0b 	bl	80012f8 <I2C_IsErrorOccurred>
 80014e2:	b9b0      	cbnz	r0, 8001512 <I2C_WaitOnSTOPFlagUntilTimeout+0x4e>
 80014e4:	f7ff f942 	bl	800076c <HAL_GetTick>
 80014e8:	1b80      	subs	r0, r0, r6
 80014ea:	42a8      	cmp	r0, r5
 80014ec:	d801      	bhi.n	80014f2 <I2C_WaitOnSTOPFlagUntilTimeout+0x2e>
 80014ee:	2d00      	cmp	r5, #0
 80014f0:	d1ec      	bne.n	80014cc <I2C_WaitOnSTOPFlagUntilTimeout+0x8>
 80014f2:	6823      	ldr	r3, [r4, #0]
 80014f4:	699b      	ldr	r3, [r3, #24]
 80014f6:	f013 0320 	ands.w	r3, r3, #32
 80014fa:	d1e7      	bne.n	80014cc <I2C_WaitOnSTOPFlagUntilTimeout+0x8>
 80014fc:	6c62      	ldr	r2, [r4, #68]	@ 0x44
 80014fe:	f884 3040 	strb.w	r3, [r4, #64]	@ 0x40
 8001502:	f042 0220 	orr.w	r2, r2, #32
 8001506:	6462      	str	r2, [r4, #68]	@ 0x44
 8001508:	2220      	movs	r2, #32
 800150a:	f884 2041 	strb.w	r2, [r4, #65]	@ 0x41
 800150e:	f884 3042 	strb.w	r3, [r4, #66]	@ 0x42
 8001512:	2001      	movs	r0, #1
 8001514:	bd70      	pop	{r4, r5, r6, pc}

08001516 <HAL_I2C_Init>:
 8001516:	b510      	push	{r4, lr}
 8001518:	4604      	mov	r4, r0
 800151a:	2800      	cmp	r0, #0
 800151c:	d04e      	beq.n	80015bc <HAL_I2C_Init+0xa6>
 800151e:	f890 3041 	ldrb.w	r3, [r0, #65]	@ 0x41
 8001522:	f003 02ff 	and.w	r2, r3, #255	@ 0xff
 8001526:	b91b      	cbnz	r3, 8001530 <HAL_I2C_Init+0x1a>
 8001528:	f880 2040 	strb.w	r2, [r0, #64]	@ 0x40
 800152c:	f7ff f858 	bl	80005e0 <HAL_I2C_MspInit>
 8001530:	2324      	movs	r3, #36	@ 0x24
 8001532:	f884 3041 	strb.w	r3, [r4, #65]	@ 0x41
 8001536:	6823      	ldr	r3, [r4, #0]
 8001538:	681a      	ldr	r2, [r3, #0]
 800153a:	f022 0201 	bic.w	r2, r2, #1
 800153e:	601a      	str	r2, [r3, #0]
 8001540:	6862      	ldr	r2, [r4, #4]
 8001542:	f022 6270 	bic.w	r2, r2, #251658240	@ 0xf000000
 8001546:	611a      	str	r2, [r3, #16]
 8001548:	689a      	ldr	r2, [r3, #8]
 800154a:	f422 4200 	bic.w	r2, r2, #32768	@ 0x8000
 800154e:	609a      	str	r2, [r3, #8]
 8001550:	e9d4 2102 	ldrd	r2, r1, [r4, #8]
 8001554:	2901      	cmp	r1, #1
 8001556:	d106      	bne.n	8001566 <HAL_I2C_Init+0x50>
 8001558:	f442 4200 	orr.w	r2, r2, #32768	@ 0x8000
 800155c:	609a      	str	r2, [r3, #8]
 800155e:	685a      	ldr	r2, [r3, #4]
 8001560:	f422 6200 	bic.w	r2, r2, #2048	@ 0x800
 8001564:	e007      	b.n	8001576 <HAL_I2C_Init+0x60>
 8001566:	f442 4204 	orr.w	r2, r2, #33792	@ 0x8400
 800156a:	2902      	cmp	r1, #2
 800156c:	609a      	str	r2, [r3, #8]
 800156e:	d1f6      	bne.n	800155e <HAL_I2C_Init+0x48>
 8001570:	685a      	ldr	r2, [r3, #4]
 8001572:	f442 6200 	orr.w	r2, r2, #2048	@ 0x800
 8001576:	605a      	str	r2, [r3, #4]
 8001578:	685a      	ldr	r2, [r3, #4]
 800157a:	f042 7200 	orr.w	r2, r2, #33554432	@ 0x2000000
 800157e:	f442 4200 	orr.w	r2, r2, #32768	@ 0x8000
 8001582:	605a      	str	r2, [r3, #4]
 8001584:	68da      	ldr	r2, [r3, #12]
 8001586:	f422 4200 	bic.w	r2, r2, #32768	@ 0x8000
 800158a:	60da      	str	r2, [r3, #12]
 800158c:	e9d4 2104 	ldrd	r2, r1, [r4, #16]
 8001590:	430a      	orrs	r2, r1
 8001592:	69a1      	ldr	r1, [r4, #24]
 8001594:	ea42 2201 	orr.w	r2, r2, r1, lsl #8
 8001598:	60da      	str	r2, [r3, #12]
 800159a:	e9d4 2107 	ldrd	r2, r1, [r4, #28]
 800159e:	430a      	orrs	r2, r1
 80015a0:	601a      	str	r2, [r3, #0]
 80015a2:	681a      	ldr	r2, [r3, #0]
 80015a4:	f042 0201 	orr.w	r2, r2, #1
 80015a8:	601a      	str	r2, [r3, #0]
 80015aa:	2000      	movs	r0, #0
 80015ac:	2320      	movs	r3, #32
 80015ae:	6460      	str	r0, [r4, #68]	@ 0x44
 80015b0:	f884 3041 	strb.w	r3, [r4, #65]	@ 0x41
 80015b4:	6320      	str	r0, [r4, #48]	@ 0x30
 80015b6:	f884 0042 	strb.w	r0, [r4, #66]	@ 0x42
 80015ba:	bd10      	pop	{r4, pc}
 80015bc:	2001      	movs	r0, #1
 80015be:	e7fc      	b.n	80015ba <HAL_I2C_Init+0xa4>

080015c0 <HAL_I2C_Master_Transmit>:
 80015c0:	e92d 47f3 	stmdb	sp!, {r0, r1, r4, r5, r6, r7, r8, r9, sl, lr}
 80015c4:	4699      	mov	r9, r3
 80015c6:	f890 3041 	ldrb.w	r3, [r0, #65]	@ 0x41
 80015ca:	9f0a      	ldr	r7, [sp, #40]	@ 0x28
 80015cc:	2b20      	cmp	r3, #32
 80015ce:	4604      	mov	r4, r0
 80015d0:	460e      	mov	r6, r1
 80015d2:	4690      	mov	r8, r2
 80015d4:	f040 809b 	bne.w	800170e <HAL_I2C_Master_Transmit+0x14e>
 80015d8:	f890 3040 	ldrb.w	r3, [r0, #64]	@ 0x40
 80015dc:	2b01      	cmp	r3, #1
 80015de:	f000 8096 	beq.w	800170e <HAL_I2C_Master_Transmit+0x14e>
 80015e2:	f04f 0a01 	mov.w	sl, #1
 80015e6:	f880 a040 	strb.w	sl, [r0, #64]	@ 0x40
 80015ea:	f7ff f8bf 	bl	800076c <HAL_GetTick>
 80015ee:	2319      	movs	r3, #25
 80015f0:	4605      	mov	r5, r0
 80015f2:	9000      	str	r0, [sp, #0]
 80015f4:	4652      	mov	r2, sl
 80015f6:	f44f 4100 	mov.w	r1, #32768	@ 0x8000
 80015fa:	4620      	mov	r0, r4
 80015fc:	f7ff ff27 	bl	800144e <I2C_WaitOnFlagUntilTimeout>
 8001600:	b118      	cbz	r0, 800160a <HAL_I2C_Master_Transmit+0x4a>
 8001602:	2001      	movs	r0, #1
 8001604:	b002      	add	sp, #8
 8001606:	e8bd 87f0 	ldmia.w	sp!, {r4, r5, r6, r7, r8, r9, sl, pc}
 800160a:	2321      	movs	r3, #33	@ 0x21
 800160c:	f884 3041 	strb.w	r3, [r4, #65]	@ 0x41
 8001610:	2310      	movs	r3, #16
 8001612:	f884 3042 	strb.w	r3, [r4, #66]	@ 0x42
 8001616:	6460      	str	r0, [r4, #68]	@ 0x44
 8001618:	f8a4 902a 	strh.w	r9, [r4, #42]	@ 0x2a
 800161c:	8d63      	ldrh	r3, [r4, #42]	@ 0x2a
 800161e:	f8c4 8024 	str.w	r8, [r4, #36]	@ 0x24
 8001622:	b29b      	uxth	r3, r3
 8001624:	2bff      	cmp	r3, #255	@ 0xff
 8001626:	bf98      	it	ls
 8001628:	8d62      	ldrhls	r2, [r4, #42]	@ 0x2a
 800162a:	6360      	str	r0, [r4, #52]	@ 0x34
 800162c:	bf95      	itete	ls
 800162e:	b292      	uxthls	r2, r2
 8001630:	22ff      	movhi	r2, #255	@ 0xff
 8001632:	f04f 7300 	movls.w	r3, #33554432	@ 0x2000000
 8001636:	f04f 7380 	movhi.w	r3, #16777216	@ 0x1000000
 800163a:	8522      	strh	r2, [r4, #40]	@ 0x28
 800163c:	b192      	cbz	r2, 8001664 <HAL_I2C_Master_Transmit+0xa4>
 800163e:	46c4      	mov	ip, r8
 8001640:	6821      	ldr	r1, [r4, #0]
 8001642:	f81c 0b01 	ldrb.w	r0, [ip], #1
 8001646:	6288      	str	r0, [r1, #40]	@ 0x28
 8001648:	8d61      	ldrh	r1, [r4, #42]	@ 0x2a
 800164a:	f8c4 c024 	str.w	ip, [r4, #36]	@ 0x24
 800164e:	3901      	subs	r1, #1
 8001650:	b289      	uxth	r1, r1
 8001652:	3a01      	subs	r2, #1
 8001654:	8561      	strh	r1, [r4, #42]	@ 0x2a
 8001656:	b292      	uxth	r2, r2
 8001658:	492e      	ldr	r1, [pc, #184]	@ (8001714 <HAL_I2C_Master_Transmit+0x154>)
 800165a:	8522      	strh	r2, [r4, #40]	@ 0x28
 800165c:	3201      	adds	r2, #1
 800165e:	9100      	str	r1, [sp, #0]
 8001660:	b2d2      	uxtb	r2, r2
 8001662:	e001      	b.n	8001668 <HAL_I2C_Master_Transmit+0xa8>
 8001664:	492b      	ldr	r1, [pc, #172]	@ (8001714 <HAL_I2C_Master_Transmit+0x154>)
 8001666:	9100      	str	r1, [sp, #0]
 8001668:	4631      	mov	r1, r6
 800166a:	4620      	mov	r0, r4
 800166c:	f7ff fe2e 	bl	80012cc <I2C_TransferConfig>
 8001670:	8d63      	ldrh	r3, [r4, #42]	@ 0x2a
 8001672:	b29b      	uxth	r3, r3
 8001674:	462a      	mov	r2, r5
 8001676:	4639      	mov	r1, r7
 8001678:	4620      	mov	r0, r4
 800167a:	b9bb      	cbnz	r3, 80016ac <HAL_I2C_Master_Transmit+0xec>
 800167c:	f7ff ff22 	bl	80014c4 <I2C_WaitOnSTOPFlagUntilTimeout>
 8001680:	2800      	cmp	r0, #0
 8001682:	d1be      	bne.n	8001602 <HAL_I2C_Master_Transmit+0x42>
 8001684:	6823      	ldr	r3, [r4, #0]
 8001686:	2120      	movs	r1, #32
 8001688:	61d9      	str	r1, [r3, #28]
 800168a:	685a      	ldr	r2, [r3, #4]
 800168c:	f022 72ff 	bic.w	r2, r2, #33423360	@ 0x1fe0000
 8001690:	f422 328b 	bic.w	r2, r2, #71168	@ 0x11600
 8001694:	f422 72ff 	bic.w	r2, r2, #510	@ 0x1fe
 8001698:	f022 0201 	bic.w	r2, r2, #1
 800169c:	605a      	str	r2, [r3, #4]
 800169e:	f884 1041 	strb.w	r1, [r4, #65]	@ 0x41
 80016a2:	f884 0040 	strb.w	r0, [r4, #64]	@ 0x40
 80016a6:	f884 0042 	strb.w	r0, [r4, #66]	@ 0x42
 80016aa:	e7ab      	b.n	8001604 <HAL_I2C_Master_Transmit+0x44>
 80016ac:	f7ff fea4 	bl	80013f8 <I2C_WaitOnTXISFlagUntilTimeout>
 80016b0:	2800      	cmp	r0, #0
 80016b2:	d1a6      	bne.n	8001602 <HAL_I2C_Master_Transmit+0x42>
 80016b4:	6a63      	ldr	r3, [r4, #36]	@ 0x24
 80016b6:	6822      	ldr	r2, [r4, #0]
 80016b8:	f813 1b01 	ldrb.w	r1, [r3], #1
 80016bc:	6291      	str	r1, [r2, #40]	@ 0x28
 80016be:	6263      	str	r3, [r4, #36]	@ 0x24
 80016c0:	8d63      	ldrh	r3, [r4, #42]	@ 0x2a
 80016c2:	8d22      	ldrh	r2, [r4, #40]	@ 0x28
 80016c4:	3b01      	subs	r3, #1
 80016c6:	b29b      	uxth	r3, r3
 80016c8:	8563      	strh	r3, [r4, #42]	@ 0x2a
 80016ca:	8d63      	ldrh	r3, [r4, #42]	@ 0x2a
 80016cc:	3a01      	subs	r2, #1
 80016ce:	b292      	uxth	r2, r2
 80016d0:	b29b      	uxth	r3, r3
 80016d2:	8522      	strh	r2, [r4, #40]	@ 0x28
 80016d4:	2b00      	cmp	r3, #0
 80016d6:	d0cb      	beq.n	8001670 <HAL_I2C_Master_Transmit+0xb0>
 80016d8:	2a00      	cmp	r2, #0
 80016da:	d1c9      	bne.n	8001670 <HAL_I2C_Master_Transmit+0xb0>
 80016dc:	9500      	str	r5, [sp, #0]
 80016de:	463b      	mov	r3, r7
 80016e0:	2180      	movs	r1, #128	@ 0x80
 80016e2:	4620      	mov	r0, r4
 80016e4:	f7ff feb3 	bl	800144e <I2C_WaitOnFlagUntilTimeout>
 80016e8:	2800      	cmp	r0, #0
 80016ea:	d18a      	bne.n	8001602 <HAL_I2C_Master_Transmit+0x42>
 80016ec:	8d63      	ldrh	r3, [r4, #42]	@ 0x2a
 80016ee:	b29b      	uxth	r3, r3
 80016f0:	2bff      	cmp	r3, #255	@ 0xff
 80016f2:	d905      	bls.n	8001700 <HAL_I2C_Master_Transmit+0x140>
 80016f4:	22ff      	movs	r2, #255	@ 0xff
 80016f6:	8522      	strh	r2, [r4, #40]	@ 0x28
 80016f8:	f04f 7380 	mov.w	r3, #16777216	@ 0x1000000
 80016fc:	9000      	str	r0, [sp, #0]
 80016fe:	e7b3      	b.n	8001668 <HAL_I2C_Master_Transmit+0xa8>
 8001700:	8d62      	ldrh	r2, [r4, #42]	@ 0x2a
 8001702:	b292      	uxth	r2, r2
 8001704:	8522      	strh	r2, [r4, #40]	@ 0x28
 8001706:	f04f 7300 	mov.w	r3, #33554432	@ 0x2000000
 800170a:	9000      	str	r0, [sp, #0]
 800170c:	e7a8      	b.n	8001660 <HAL_I2C_Master_Transmit+0xa0>
 800170e:	2002      	movs	r0, #2
 8001710:	e778      	b.n	8001604 <HAL_I2C_Master_Transmit+0x44>
 8001712:	bf00      	nop
 8001714:	80002000 	.word	0x80002000

08001718 <HAL_I2CEx_ConfigAnalogFilter>:
 8001718:	b510      	push	{r4, lr}
 800171a:	f890 2041 	ldrb.w	r2, [r0, #65]	@ 0x41
 800171e:	2a20      	cmp	r2, #32
 8001720:	4603      	mov	r3, r0
 8001722:	b2d4      	uxtb	r4, r2
 8001724:	d11c      	bne.n	8001760 <HAL_I2CEx_ConfigAnalogFilter+0x48>
 8001726:	f890 2040 	ldrb.w	r2, [r0, #64]	@ 0x40
 800172a:	2a01      	cmp	r2, #1
 800172c:	d018      	beq.n	8001760 <HAL_I2CEx_ConfigAnalogFilter+0x48>
 800172e:	2224      	movs	r2, #36	@ 0x24
 8001730:	f880 2041 	strb.w	r2, [r0, #65]	@ 0x41
 8001734:	6802      	ldr	r2, [r0, #0]
 8001736:	6810      	ldr	r0, [r2, #0]
 8001738:	f020 0001 	bic.w	r0, r0, #1
 800173c:	6010      	str	r0, [r2, #0]
 800173e:	6810      	ldr	r0, [r2, #0]
 8001740:	f420 5080 	bic.w	r0, r0, #4096	@ 0x1000
 8001744:	6010      	str	r0, [r2, #0]
 8001746:	6810      	ldr	r0, [r2, #0]
 8001748:	4301      	orrs	r1, r0
 800174a:	6011      	str	r1, [r2, #0]
 800174c:	6811      	ldr	r1, [r2, #0]
 800174e:	2000      	movs	r0, #0
 8001750:	f041 0101 	orr.w	r1, r1, #1
 8001754:	6011      	str	r1, [r2, #0]
 8001756:	f883 4041 	strb.w	r4, [r3, #65]	@ 0x41
 800175a:	f883 0040 	strb.w	r0, [r3, #64]	@ 0x40
 800175e:	bd10      	pop	{r4, pc}
 8001760:	2002      	movs	r0, #2
 8001762:	e7fc      	b.n	800175e <HAL_I2CEx_ConfigAnalogFilter+0x46>

08001764 <HAL_I2CEx_ConfigDigitalFilter>:
 8001764:	b510      	push	{r4, lr}
 8001766:	f890 2041 	ldrb.w	r2, [r0, #65]	@ 0x41
 800176a:	2a20      	cmp	r2, #32
 800176c:	4603      	mov	r3, r0
 800176e:	b2d4      	uxtb	r4, r2
 8001770:	d11b      	bne.n	80017aa <HAL_I2CEx_ConfigDigitalFilter+0x46>
 8001772:	f890 2040 	ldrb.w	r2, [r0, #64]	@ 0x40
 8001776:	2a01      	cmp	r2, #1
 8001778:	d017      	beq.n	80017aa <HAL_I2CEx_ConfigDigitalFilter+0x46>
 800177a:	2224      	movs	r2, #36	@ 0x24
 800177c:	f880 2041 	strb.w	r2, [r0, #65]	@ 0x41
 8001780:	6802      	ldr	r2, [r0, #0]
 8001782:	6810      	ldr	r0, [r2, #0]
 8001784:	f020 0001 	bic.w	r0, r0, #1
 8001788:	6010      	str	r0, [r2, #0]
 800178a:	6810      	ldr	r0, [r2, #0]
 800178c:	f420 6070 	bic.w	r0, r0, #3840	@ 0xf00
 8001790:	ea40 2101 	orr.w	r1, r0, r1, lsl #8
 8001794:	6011      	str	r1, [r2, #0]
 8001796:	6811      	ldr	r1, [r2, #0]
 8001798:	2000      	movs	r0, #0
 800179a:	f041 0101 	orr.w	r1, r1, #1
 800179e:	6011      	str	r1, [r2, #0]
 80017a0:	f883 4041 	strb.w	r4, [r3, #65]	@ 0x41
 80017a4:	f883 0040 	strb.w	r0, [r3, #64]	@ 0x40
 80017a8:	bd10      	pop	{r4, pc}
 80017aa:	2002      	movs	r0, #2
 80017ac:	e7fc      	b.n	80017a8 <HAL_I2CEx_ConfigDigitalFilter+0x44>
	...

080017b0 <HAL_PWREx_GetVoltageRange>:
 80017b0:	4b02      	ldr	r3, [pc, #8]	@ (80017bc <HAL_PWREx_GetVoltageRange+0xc>)
 80017b2:	6818      	ldr	r0, [r3, #0]
 80017b4:	f400 60c0 	and.w	r0, r0, #1536	@ 0x600
 80017b8:	4770      	bx	lr
 80017ba:	bf00      	nop
 80017bc:	40007000 	.word	0x40007000

080017c0 <HAL_PWREx_ControlVoltageScaling>:
 80017c0:	4a17      	ldr	r2, [pc, #92]	@ (8001820 <HAL_PWREx_ControlVoltageScaling+0x60>)
 80017c2:	6813      	ldr	r3, [r2, #0]
 80017c4:	f5b0 7f00 	cmp.w	r0, #512	@ 0x200
 80017c8:	f403 63c0 	and.w	r3, r3, #1536	@ 0x600
 80017cc:	d11b      	bne.n	8001806 <HAL_PWREx_ControlVoltageScaling+0x46>
 80017ce:	f5b3 7f00 	cmp.w	r3, #512	@ 0x200
 80017d2:	d01b      	beq.n	800180c <HAL_PWREx_ControlVoltageScaling+0x4c>
 80017d4:	6813      	ldr	r3, [r2, #0]
 80017d6:	f423 63c0 	bic.w	r3, r3, #1536	@ 0x600
 80017da:	f443 7300 	orr.w	r3, r3, #512	@ 0x200
 80017de:	6013      	str	r3, [r2, #0]
 80017e0:	4b10      	ldr	r3, [pc, #64]	@ (8001824 <HAL_PWREx_ControlVoltageScaling+0x64>)
 80017e2:	681b      	ldr	r3, [r3, #0]
 80017e4:	2132      	movs	r1, #50	@ 0x32
 80017e6:	434b      	muls	r3, r1
 80017e8:	490f      	ldr	r1, [pc, #60]	@ (8001828 <HAL_PWREx_ControlVoltageScaling+0x68>)
 80017ea:	fbb3 f3f1 	udiv	r3, r3, r1
 80017ee:	3301      	adds	r3, #1
 80017f0:	6951      	ldr	r1, [r2, #20]
 80017f2:	0549      	lsls	r1, r1, #21
 80017f4:	d500      	bpl.n	80017f8 <HAL_PWREx_ControlVoltageScaling+0x38>
 80017f6:	b923      	cbnz	r3, 8001802 <HAL_PWREx_ControlVoltageScaling+0x42>
 80017f8:	6953      	ldr	r3, [r2, #20]
 80017fa:	055b      	lsls	r3, r3, #21
 80017fc:	d506      	bpl.n	800180c <HAL_PWREx_ControlVoltageScaling+0x4c>
 80017fe:	2003      	movs	r0, #3
 8001800:	4770      	bx	lr
 8001802:	3b01      	subs	r3, #1
 8001804:	e7f4      	b.n	80017f0 <HAL_PWREx_ControlVoltageScaling+0x30>
 8001806:	f5b3 6f80 	cmp.w	r3, #1024	@ 0x400
 800180a:	d101      	bne.n	8001810 <HAL_PWREx_ControlVoltageScaling+0x50>
 800180c:	2000      	movs	r0, #0
 800180e:	4770      	bx	lr
 8001810:	6813      	ldr	r3, [r2, #0]
 8001812:	f423 63c0 	bic.w	r3, r3, #1536	@ 0x600
 8001816:	f443 6380 	orr.w	r3, r3, #1024	@ 0x400
 800181a:	6013      	str	r3, [r2, #0]
 800181c:	e7f6      	b.n	800180c <HAL_PWREx_ControlVoltageScaling+0x4c>
 800181e:	bf00      	nop
 8001820:	40007000 	.word	0x40007000
 8001824:	20000008 	.word	0x20000008
 8001828:	000f4240 	.word	0x000f4240

0800182c <HAL_PWREx_EnterSTOP2Mode>:
 800182c:	4a0b      	ldr	r2, [pc, #44]	@ (800185c <HAL_PWREx_EnterSTOP2Mode+0x30>)
 800182e:	6813      	ldr	r3, [r2, #0]
 8001830:	f023 0307 	bic.w	r3, r3, #7
 8001834:	f043 0302 	orr.w	r3, r3, #2
 8001838:	6013      	str	r3, [r2, #0]
 800183a:	4b09      	ldr	r3, [pc, #36]	@ (8001860 <HAL_PWREx_EnterSTOP2Mode+0x34>)
 800183c:	691a      	ldr	r2, [r3, #16]
 800183e:	2801      	cmp	r0, #1
 8001840:	f042 0204 	orr.w	r2, r2, #4
 8001844:	611a      	str	r2, [r3, #16]
 8001846:	d105      	bne.n	8001854 <HAL_PWREx_EnterSTOP2Mode+0x28>
 8001848:	bf30      	wfi
 800184a:	691a      	ldr	r2, [r3, #16]
 800184c:	f022 0204 	bic.w	r2, r2, #4
 8001850:	611a      	str	r2, [r3, #16]
 8001852:	4770      	bx	lr
 8001854:	bf40      	sev
 8001856:	bf20      	wfe
 8001858:	bf20      	wfe
 800185a:	e7f6      	b.n	800184a <HAL_PWREx_EnterSTOP2Mode+0x1e>
 800185c:	40007000 	.word	0x40007000
 8001860:	e000ed00 	.word	0xe000ed00

08001864 <RCC_SetFlashLatencyFromMSIRange>:
 8001864:	b537      	push	{r0, r1, r2, r4, r5, lr}
 8001866:	4d1e      	ldr	r5, [pc, #120]	@ (80018e0 <RCC_SetFlashLatencyFromMSIRange+0x7c>)
 8001868:	6dab      	ldr	r3, [r5, #88]	@ 0x58
 800186a:	00da      	lsls	r2, r3, #3
 800186c:	4604      	mov	r4, r0
 800186e:	d518      	bpl.n	80018a2 <RCC_SetFlashLatencyFromMSIRange+0x3e>
 8001870:	f7ff ff9e 	bl	80017b0 <HAL_PWREx_GetVoltageRange>
 8001874:	f5b0 7f00 	cmp.w	r0, #512	@ 0x200
 8001878:	d123      	bne.n	80018c2 <RCC_SetFlashLatencyFromMSIRange+0x5e>
 800187a:	2c80      	cmp	r4, #128	@ 0x80
 800187c:	d929      	bls.n	80018d2 <RCC_SetFlashLatencyFromMSIRange+0x6e>
 800187e:	2ca1      	cmp	r4, #161	@ 0xa1
 8001880:	bf34      	ite	cc
 8001882:	2401      	movcc	r4, #1
 8001884:	2402      	movcs	r4, #2
 8001886:	4917      	ldr	r1, [pc, #92]	@ (80018e4 <RCC_SetFlashLatencyFromMSIRange+0x80>)
 8001888:	680a      	ldr	r2, [r1, #0]
 800188a:	f022 0207 	bic.w	r2, r2, #7
 800188e:	4322      	orrs	r2, r4
 8001890:	600a      	str	r2, [r1, #0]
 8001892:	6808      	ldr	r0, [r1, #0]
 8001894:	f000 0007 	and.w	r0, r0, #7
 8001898:	1b00      	subs	r0, r0, r4
 800189a:	bf18      	it	ne
 800189c:	2001      	movne	r0, #1
 800189e:	b003      	add	sp, #12
 80018a0:	bd30      	pop	{r4, r5, pc}
 80018a2:	6dab      	ldr	r3, [r5, #88]	@ 0x58
 80018a4:	f043 5380 	orr.w	r3, r3, #268435456	@ 0x10000000
 80018a8:	65ab      	str	r3, [r5, #88]	@ 0x58
 80018aa:	6dab      	ldr	r3, [r5, #88]	@ 0x58
 80018ac:	f003 5380 	and.w	r3, r3, #268435456	@ 0x10000000
 80018b0:	9301      	str	r3, [sp, #4]
 80018b2:	9b01      	ldr	r3, [sp, #4]
 80018b4:	f7ff ff7c 	bl	80017b0 <HAL_PWREx_GetVoltageRange>
 80018b8:	6dab      	ldr	r3, [r5, #88]	@ 0x58
 80018ba:	f023 5380 	bic.w	r3, r3, #268435456	@ 0x10000000
 80018be:	65ab      	str	r3, [r5, #88]	@ 0x58
 80018c0:	e7d8      	b.n	8001874 <RCC_SetFlashLatencyFromMSIRange+0x10>
 80018c2:	2c80      	cmp	r4, #128	@ 0x80
 80018c4:	d807      	bhi.n	80018d6 <RCC_SetFlashLatencyFromMSIRange+0x72>
 80018c6:	d008      	beq.n	80018da <RCC_SetFlashLatencyFromMSIRange+0x76>
 80018c8:	f1a4 0370 	sub.w	r3, r4, #112	@ 0x70
 80018cc:	425c      	negs	r4, r3
 80018ce:	415c      	adcs	r4, r3
 80018d0:	e7d9      	b.n	8001886 <RCC_SetFlashLatencyFromMSIRange+0x22>
 80018d2:	2400      	movs	r4, #0
 80018d4:	e7d7      	b.n	8001886 <RCC_SetFlashLatencyFromMSIRange+0x22>
 80018d6:	2403      	movs	r4, #3
 80018d8:	e7d5      	b.n	8001886 <RCC_SetFlashLatencyFromMSIRange+0x22>
 80018da:	2402      	movs	r4, #2
 80018dc:	e7d3      	b.n	8001886 <RCC_SetFlashLatencyFromMSIRange+0x22>
 80018de:	bf00      	nop
 80018e0:	40021000 	.word	0x40021000
 80018e4:	40022000 	.word	0x40022000

080018e8 <HAL_RCC_GetSysClockFreq>:
 80018e8:	4b22      	ldr	r3, [pc, #136]	@ (8001974 <HAL_RCC_GetSysClockFreq+0x8c>)
 80018ea:	689a      	ldr	r2, [r3, #8]
 80018ec:	68d9      	ldr	r1, [r3, #12]
 80018ee:	f012 020c 	ands.w	r2, r2, #12
 80018f2:	d005      	beq.n	8001900 <HAL_RCC_GetSysClockFreq+0x18>
 80018f4:	2a0c      	cmp	r2, #12
 80018f6:	d115      	bne.n	8001924 <HAL_RCC_GetSysClockFreq+0x3c>
 80018f8:	f001 0103 	and.w	r1, r1, #3
 80018fc:	2901      	cmp	r1, #1
 80018fe:	d118      	bne.n	8001932 <HAL_RCC_GetSysClockFreq+0x4a>
 8001900:	6819      	ldr	r1, [r3, #0]
 8001902:	481d      	ldr	r0, [pc, #116]	@ (8001978 <HAL_RCC_GetSysClockFreq+0x90>)
 8001904:	0709      	lsls	r1, r1, #28
 8001906:	bf55      	itete	pl
 8001908:	f8d3 1094 	ldrpl.w	r1, [r3, #148]	@ 0x94
 800190c:	6819      	ldrmi	r1, [r3, #0]
 800190e:	f3c1 2103 	ubfxpl	r1, r1, #8, #4
 8001912:	f3c1 1103 	ubfxmi	r1, r1, #4, #4
 8001916:	f850 0021 	ldr.w	r0, [r0, r1, lsl #2]
 800191a:	b34a      	cbz	r2, 8001970 <HAL_RCC_GetSysClockFreq+0x88>
 800191c:	2a0c      	cmp	r2, #12
 800191e:	d009      	beq.n	8001934 <HAL_RCC_GetSysClockFreq+0x4c>
 8001920:	2000      	movs	r0, #0
 8001922:	4770      	bx	lr
 8001924:	2a04      	cmp	r2, #4
 8001926:	d022      	beq.n	800196e <HAL_RCC_GetSysClockFreq+0x86>
 8001928:	2a08      	cmp	r2, #8
 800192a:	4814      	ldr	r0, [pc, #80]	@ (800197c <HAL_RCC_GetSysClockFreq+0x94>)
 800192c:	bf18      	it	ne
 800192e:	2000      	movne	r0, #0
 8001930:	4770      	bx	lr
 8001932:	2000      	movs	r0, #0
 8001934:	68da      	ldr	r2, [r3, #12]
 8001936:	f002 0203 	and.w	r2, r2, #3
 800193a:	2a02      	cmp	r2, #2
 800193c:	d015      	beq.n	800196a <HAL_RCC_GetSysClockFreq+0x82>
 800193e:	490f      	ldr	r1, [pc, #60]	@ (800197c <HAL_RCC_GetSysClockFreq+0x94>)
 8001940:	2a03      	cmp	r2, #3
 8001942:	bf08      	it	eq
 8001944:	4608      	moveq	r0, r1
 8001946:	68d9      	ldr	r1, [r3, #12]
 8001948:	68da      	ldr	r2, [r3, #12]
 800194a:	f3c2 2206 	ubfx	r2, r2, #8, #7
 800194e:	4342      	muls	r2, r0
 8001950:	68d8      	ldr	r0, [r3, #12]
 8001952:	f3c0 6041 	ubfx	r0, r0, #25, #2
 8001956:	f3c1 1102 	ubfx	r1, r1, #4, #3
 800195a:	3001      	adds	r0, #1
 800195c:	3101      	adds	r1, #1
 800195e:	0040      	lsls	r0, r0, #1
 8001960:	fbb2 f2f1 	udiv	r2, r2, r1
 8001964:	fbb2 f0f0 	udiv	r0, r2, r0
 8001968:	4770      	bx	lr
 800196a:	4805      	ldr	r0, [pc, #20]	@ (8001980 <HAL_RCC_GetSysClockFreq+0x98>)
 800196c:	e7eb      	b.n	8001946 <HAL_RCC_GetSysClockFreq+0x5e>
 800196e:	4804      	ldr	r0, [pc, #16]	@ (8001980 <HAL_RCC_GetSysClockFreq+0x98>)
 8001970:	4770      	bx	lr
 8001972:	bf00      	nop
 8001974:	40021000 	.word	0x40021000
 8001978:	08002464 	.word	0x08002464
 800197c:	007a1200 	.word	0x007a1200
 8001980:	00f42400 	.word	0x00f42400

08001984 <HAL_RCC_OscConfig>:
 8001984:	e92d 43f7 	stmdb	sp!, {r0, r1, r2, r4, r5, r6, r7, r8, r9, lr}
 8001988:	4605      	mov	r5, r0
 800198a:	2800      	cmp	r0, #0
 800198c:	d060      	beq.n	8001a50 <HAL_RCC_OscConfig+0xcc>
 800198e:	4c95      	ldr	r4, [pc, #596]	@ (8001be4 <HAL_RCC_OscConfig+0x260>)
 8001990:	6803      	ldr	r3, [r0, #0]
 8001992:	68a6      	ldr	r6, [r4, #8]
 8001994:	68e7      	ldr	r7, [r4, #12]
 8001996:	06db      	lsls	r3, r3, #27
 8001998:	f006 060c 	and.w	r6, r6, #12
 800199c:	f007 0703 	and.w	r7, r7, #3
 80019a0:	d576      	bpl.n	8001a90 <HAL_RCC_OscConfig+0x10c>
 80019a2:	b11e      	cbz	r6, 80019ac <HAL_RCC_OscConfig+0x28>
 80019a4:	2e0c      	cmp	r6, #12
 80019a6:	d155      	bne.n	8001a54 <HAL_RCC_OscConfig+0xd0>
 80019a8:	2f01      	cmp	r7, #1
 80019aa:	d153      	bne.n	8001a54 <HAL_RCC_OscConfig+0xd0>
 80019ac:	6823      	ldr	r3, [r4, #0]
 80019ae:	0798      	lsls	r0, r3, #30
 80019b0:	d502      	bpl.n	80019b8 <HAL_RCC_OscConfig+0x34>
 80019b2:	69ab      	ldr	r3, [r5, #24]
 80019b4:	2b00      	cmp	r3, #0
 80019b6:	d04b      	beq.n	8001a50 <HAL_RCC_OscConfig+0xcc>
 80019b8:	6823      	ldr	r3, [r4, #0]
 80019ba:	6a28      	ldr	r0, [r5, #32]
 80019bc:	0719      	lsls	r1, r3, #28
 80019be:	bf56      	itet	pl
 80019c0:	f8d4 3094 	ldrpl.w	r3, [r4, #148]	@ 0x94
 80019c4:	6823      	ldrmi	r3, [r4, #0]
 80019c6:	091b      	lsrpl	r3, r3, #4
 80019c8:	f003 03f0 	and.w	r3, r3, #240	@ 0xf0
 80019cc:	4298      	cmp	r0, r3
 80019ce:	d929      	bls.n	8001a24 <HAL_RCC_OscConfig+0xa0>
 80019d0:	f7ff ff48 	bl	8001864 <RCC_SetFlashLatencyFromMSIRange>
 80019d4:	2800      	cmp	r0, #0
 80019d6:	d13b      	bne.n	8001a50 <HAL_RCC_OscConfig+0xcc>
 80019d8:	6823      	ldr	r3, [r4, #0]
 80019da:	f043 0308 	orr.w	r3, r3, #8
 80019de:	6023      	str	r3, [r4, #0]
 80019e0:	6823      	ldr	r3, [r4, #0]
 80019e2:	6a2a      	ldr	r2, [r5, #32]
 80019e4:	f023 03f0 	bic.w	r3, r3, #240	@ 0xf0
 80019e8:	4313      	orrs	r3, r2
 80019ea:	6023      	str	r3, [r4, #0]
 80019ec:	6863      	ldr	r3, [r4, #4]
 80019ee:	69ea      	ldr	r2, [r5, #28]
 80019f0:	f423 437f 	bic.w	r3, r3, #65280	@ 0xff00
 80019f4:	ea43 2302 	orr.w	r3, r3, r2, lsl #8
 80019f8:	6063      	str	r3, [r4, #4]
 80019fa:	f7ff ff75 	bl	80018e8 <HAL_RCC_GetSysClockFreq>
 80019fe:	68a3      	ldr	r3, [r4, #8]
 8001a00:	4a79      	ldr	r2, [pc, #484]	@ (8001be8 <HAL_RCC_OscConfig+0x264>)
 8001a02:	f3c3 1303 	ubfx	r3, r3, #4, #4
 8001a06:	5cd3      	ldrb	r3, [r2, r3]
 8001a08:	f003 031f 	and.w	r3, r3, #31
 8001a0c:	40d8      	lsrs	r0, r3
 8001a0e:	4b77      	ldr	r3, [pc, #476]	@ (8001bec <HAL_RCC_OscConfig+0x268>)
 8001a10:	6018      	str	r0, [r3, #0]
 8001a12:	4b77      	ldr	r3, [pc, #476]	@ (8001bf0 <HAL_RCC_OscConfig+0x26c>)
 8001a14:	6818      	ldr	r0, [r3, #0]
 8001a16:	f7fe fe67 	bl	80006e8 <HAL_InitTick>
 8001a1a:	2800      	cmp	r0, #0
 8001a1c:	d038      	beq.n	8001a90 <HAL_RCC_OscConfig+0x10c>
 8001a1e:	b003      	add	sp, #12
 8001a20:	e8bd 83f0 	ldmia.w	sp!, {r4, r5, r6, r7, r8, r9, pc}
 8001a24:	6823      	ldr	r3, [r4, #0]
 8001a26:	f043 0308 	orr.w	r3, r3, #8
 8001a2a:	6023      	str	r3, [r4, #0]
 8001a2c:	6823      	ldr	r3, [r4, #0]
 8001a2e:	f023 03f0 	bic.w	r3, r3, #240	@ 0xf0
 8001a32:	4303      	orrs	r3, r0
 8001a34:	6023      	str	r3, [r4, #0]
 8001a36:	6863      	ldr	r3, [r4, #4]
 8001a38:	69ea      	ldr	r2, [r5, #28]
 8001a3a:	f423 437f 	bic.w	r3, r3, #65280	@ 0xff00
 8001a3e:	ea43 2302 	orr.w	r3, r3, r2, lsl #8
 8001a42:	6063      	str	r3, [r4, #4]
 8001a44:	2e00      	cmp	r6, #0
 8001a46:	d1d8      	bne.n	80019fa <HAL_RCC_OscConfig+0x76>
 8001a48:	f7ff ff0c 	bl	8001864 <RCC_SetFlashLatencyFromMSIRange>
 8001a4c:	2800      	cmp	r0, #0
 8001a4e:	d0d4      	beq.n	80019fa <HAL_RCC_OscConfig+0x76>
 8001a50:	2001      	movs	r0, #1
 8001a52:	e7e4      	b.n	8001a1e <HAL_RCC_OscConfig+0x9a>
 8001a54:	69ab      	ldr	r3, [r5, #24]
 8001a56:	2b00      	cmp	r3, #0
 8001a58:	d03a      	beq.n	8001ad0 <HAL_RCC_OscConfig+0x14c>
 8001a5a:	6823      	ldr	r3, [r4, #0]
 8001a5c:	f043 0301 	orr.w	r3, r3, #1
 8001a60:	6023      	str	r3, [r4, #0]
 8001a62:	f7fe fe83 	bl	800076c <HAL_GetTick>
 8001a66:	4680      	mov	r8, r0
 8001a68:	6823      	ldr	r3, [r4, #0]
 8001a6a:	079a      	lsls	r2, r3, #30
 8001a6c:	d528      	bpl.n	8001ac0 <HAL_RCC_OscConfig+0x13c>
 8001a6e:	6823      	ldr	r3, [r4, #0]
 8001a70:	f043 0308 	orr.w	r3, r3, #8
 8001a74:	6023      	str	r3, [r4, #0]
 8001a76:	6823      	ldr	r3, [r4, #0]
 8001a78:	6a2a      	ldr	r2, [r5, #32]
 8001a7a:	f023 03f0 	bic.w	r3, r3, #240	@ 0xf0
 8001a7e:	4313      	orrs	r3, r2
 8001a80:	6023      	str	r3, [r4, #0]
 8001a82:	6863      	ldr	r3, [r4, #4]
 8001a84:	69ea      	ldr	r2, [r5, #28]
 8001a86:	f423 437f 	bic.w	r3, r3, #65280	@ 0xff00
 8001a8a:	ea43 2302 	orr.w	r3, r3, r2, lsl #8
 8001a8e:	6063      	str	r3, [r4, #4]
 8001a90:	682b      	ldr	r3, [r5, #0]
 8001a92:	07d8      	lsls	r0, r3, #31
 8001a94:	d42d      	bmi.n	8001af2 <HAL_RCC_OscConfig+0x16e>
 8001a96:	682b      	ldr	r3, [r5, #0]
 8001a98:	0799      	lsls	r1, r3, #30
 8001a9a:	d46b      	bmi.n	8001b74 <HAL_RCC_OscConfig+0x1f0>
 8001a9c:	682b      	ldr	r3, [r5, #0]
 8001a9e:	0718      	lsls	r0, r3, #28
 8001aa0:	f100 80a8 	bmi.w	8001bf4 <HAL_RCC_OscConfig+0x270>
 8001aa4:	682b      	ldr	r3, [r5, #0]
 8001aa6:	0759      	lsls	r1, r3, #29
 8001aa8:	f100 80ce 	bmi.w	8001c48 <HAL_RCC_OscConfig+0x2c4>
 8001aac:	682b      	ldr	r3, [r5, #0]
 8001aae:	0698      	lsls	r0, r3, #26
 8001ab0:	f100 8137 	bmi.w	8001d22 <HAL_RCC_OscConfig+0x39e>
 8001ab4:	6aab      	ldr	r3, [r5, #40]	@ 0x28
 8001ab6:	2b00      	cmp	r3, #0
 8001ab8:	f040 815d 	bne.w	8001d76 <HAL_RCC_OscConfig+0x3f2>
 8001abc:	2000      	movs	r0, #0
 8001abe:	e7ae      	b.n	8001a1e <HAL_RCC_OscConfig+0x9a>
 8001ac0:	f7fe fe54 	bl	800076c <HAL_GetTick>
 8001ac4:	eba0 0008 	sub.w	r0, r0, r8
 8001ac8:	2802      	cmp	r0, #2
 8001aca:	d9cd      	bls.n	8001a68 <HAL_RCC_OscConfig+0xe4>
 8001acc:	2003      	movs	r0, #3
 8001ace:	e7a6      	b.n	8001a1e <HAL_RCC_OscConfig+0x9a>
 8001ad0:	6823      	ldr	r3, [r4, #0]
 8001ad2:	f023 0301 	bic.w	r3, r3, #1
 8001ad6:	6023      	str	r3, [r4, #0]
 8001ad8:	f7fe fe48 	bl	800076c <HAL_GetTick>
 8001adc:	4680      	mov	r8, r0
 8001ade:	6823      	ldr	r3, [r4, #0]
 8001ae0:	079b      	lsls	r3, r3, #30
 8001ae2:	d5d5      	bpl.n	8001a90 <HAL_RCC_OscConfig+0x10c>
 8001ae4:	f7fe fe42 	bl	800076c <HAL_GetTick>
 8001ae8:	eba0 0008 	sub.w	r0, r0, r8
 8001aec:	2802      	cmp	r0, #2
 8001aee:	d9f6      	bls.n	8001ade <HAL_RCC_OscConfig+0x15a>
 8001af0:	e7ec      	b.n	8001acc <HAL_RCC_OscConfig+0x148>
 8001af2:	2e08      	cmp	r6, #8
 8001af4:	d003      	beq.n	8001afe <HAL_RCC_OscConfig+0x17a>
 8001af6:	2e0c      	cmp	r6, #12
 8001af8:	d108      	bne.n	8001b0c <HAL_RCC_OscConfig+0x188>
 8001afa:	2f03      	cmp	r7, #3
 8001afc:	d106      	bne.n	8001b0c <HAL_RCC_OscConfig+0x188>
 8001afe:	6823      	ldr	r3, [r4, #0]
 8001b00:	039a      	lsls	r2, r3, #14
 8001b02:	d5c8      	bpl.n	8001a96 <HAL_RCC_OscConfig+0x112>
 8001b04:	686b      	ldr	r3, [r5, #4]
 8001b06:	2b00      	cmp	r3, #0
 8001b08:	d1c5      	bne.n	8001a96 <HAL_RCC_OscConfig+0x112>
 8001b0a:	e7a1      	b.n	8001a50 <HAL_RCC_OscConfig+0xcc>
 8001b0c:	686b      	ldr	r3, [r5, #4]
 8001b0e:	f5b3 3f80 	cmp.w	r3, #65536	@ 0x10000
 8001b12:	d110      	bne.n	8001b36 <HAL_RCC_OscConfig+0x1b2>
 8001b14:	6823      	ldr	r3, [r4, #0]
 8001b16:	f443 3380 	orr.w	r3, r3, #65536	@ 0x10000
 8001b1a:	6023      	str	r3, [r4, #0]
 8001b1c:	f7fe fe26 	bl	800076c <HAL_GetTick>
 8001b20:	4680      	mov	r8, r0
 8001b22:	6823      	ldr	r3, [r4, #0]
 8001b24:	039b      	lsls	r3, r3, #14
 8001b26:	d4b6      	bmi.n	8001a96 <HAL_RCC_OscConfig+0x112>
 8001b28:	f7fe fe20 	bl	800076c <HAL_GetTick>
 8001b2c:	eba0 0008 	sub.w	r0, r0, r8
 8001b30:	2864      	cmp	r0, #100	@ 0x64
 8001b32:	d9f6      	bls.n	8001b22 <HAL_RCC_OscConfig+0x19e>
 8001b34:	e7ca      	b.n	8001acc <HAL_RCC_OscConfig+0x148>
 8001b36:	f5b3 2fa0 	cmp.w	r3, #327680	@ 0x50000
 8001b3a:	d104      	bne.n	8001b46 <HAL_RCC_OscConfig+0x1c2>
 8001b3c:	6823      	ldr	r3, [r4, #0]
 8001b3e:	f443 2380 	orr.w	r3, r3, #262144	@ 0x40000
 8001b42:	6023      	str	r3, [r4, #0]
 8001b44:	e7e6      	b.n	8001b14 <HAL_RCC_OscConfig+0x190>
 8001b46:	6822      	ldr	r2, [r4, #0]
 8001b48:	f422 3280 	bic.w	r2, r2, #65536	@ 0x10000
 8001b4c:	6022      	str	r2, [r4, #0]
 8001b4e:	6822      	ldr	r2, [r4, #0]
 8001b50:	f422 2280 	bic.w	r2, r2, #262144	@ 0x40000
 8001b54:	6022      	str	r2, [r4, #0]
 8001b56:	2b00      	cmp	r3, #0
 8001b58:	d1e0      	bne.n	8001b1c <HAL_RCC_OscConfig+0x198>
 8001b5a:	f7fe fe07 	bl	800076c <HAL_GetTick>
 8001b5e:	4680      	mov	r8, r0
 8001b60:	6823      	ldr	r3, [r4, #0]
 8001b62:	0398      	lsls	r0, r3, #14
 8001b64:	d597      	bpl.n	8001a96 <HAL_RCC_OscConfig+0x112>
 8001b66:	f7fe fe01 	bl	800076c <HAL_GetTick>
 8001b6a:	eba0 0008 	sub.w	r0, r0, r8
 8001b6e:	2864      	cmp	r0, #100	@ 0x64
 8001b70:	d9f6      	bls.n	8001b60 <HAL_RCC_OscConfig+0x1dc>
 8001b72:	e7ab      	b.n	8001acc <HAL_RCC_OscConfig+0x148>
 8001b74:	2e04      	cmp	r6, #4
 8001b76:	d003      	beq.n	8001b80 <HAL_RCC_OscConfig+0x1fc>
 8001b78:	2e0c      	cmp	r6, #12
 8001b7a:	d110      	bne.n	8001b9e <HAL_RCC_OscConfig+0x21a>
 8001b7c:	2f02      	cmp	r7, #2
 8001b7e:	d10e      	bne.n	8001b9e <HAL_RCC_OscConfig+0x21a>
 8001b80:	6823      	ldr	r3, [r4, #0]
 8001b82:	0559      	lsls	r1, r3, #21
 8001b84:	d503      	bpl.n	8001b8e <HAL_RCC_OscConfig+0x20a>
 8001b86:	68eb      	ldr	r3, [r5, #12]
 8001b88:	2b00      	cmp	r3, #0
 8001b8a:	f43f af61 	beq.w	8001a50 <HAL_RCC_OscConfig+0xcc>
 8001b8e:	6863      	ldr	r3, [r4, #4]
 8001b90:	692a      	ldr	r2, [r5, #16]
 8001b92:	f023 53f8 	bic.w	r3, r3, #520093696	@ 0x1f000000
 8001b96:	ea43 6302 	orr.w	r3, r3, r2, lsl #24
 8001b9a:	6063      	str	r3, [r4, #4]
 8001b9c:	e77e      	b.n	8001a9c <HAL_RCC_OscConfig+0x118>
 8001b9e:	68eb      	ldr	r3, [r5, #12]
 8001ba0:	b17b      	cbz	r3, 8001bc2 <HAL_RCC_OscConfig+0x23e>
 8001ba2:	6823      	ldr	r3, [r4, #0]
 8001ba4:	f443 7380 	orr.w	r3, r3, #256	@ 0x100
 8001ba8:	6023      	str	r3, [r4, #0]
 8001baa:	f7fe fddf 	bl	800076c <HAL_GetTick>
 8001bae:	4607      	mov	r7, r0
 8001bb0:	6823      	ldr	r3, [r4, #0]
 8001bb2:	055a      	lsls	r2, r3, #21
 8001bb4:	d4eb      	bmi.n	8001b8e <HAL_RCC_OscConfig+0x20a>
 8001bb6:	f7fe fdd9 	bl	800076c <HAL_GetTick>
 8001bba:	1bc0      	subs	r0, r0, r7
 8001bbc:	2802      	cmp	r0, #2
 8001bbe:	d9f7      	bls.n	8001bb0 <HAL_RCC_OscConfig+0x22c>
 8001bc0:	e784      	b.n	8001acc <HAL_RCC_OscConfig+0x148>
 8001bc2:	6823      	ldr	r3, [r4, #0]
 8001bc4:	f423 7380 	bic.w	r3, r3, #256	@ 0x100
 8001bc8:	6023      	str	r3, [r4, #0]
 8001bca:	f7fe fdcf 	bl	800076c <HAL_GetTick>
 8001bce:	4607      	mov	r7, r0
 8001bd0:	6823      	ldr	r3, [r4, #0]
 8001bd2:	055b      	lsls	r3, r3, #21
 8001bd4:	f57f af62 	bpl.w	8001a9c <HAL_RCC_OscConfig+0x118>
 8001bd8:	f7fe fdc8 	bl	800076c <HAL_GetTick>
 8001bdc:	1bc0      	subs	r0, r0, r7
 8001bde:	2802      	cmp	r0, #2
 8001be0:	d9f6      	bls.n	8001bd0 <HAL_RCC_OscConfig+0x24c>
 8001be2:	e773      	b.n	8001acc <HAL_RCC_OscConfig+0x148>
 8001be4:	40021000 	.word	0x40021000
 8001be8:	08002494 	.word	0x08002494
 8001bec:	20000008 	.word	0x20000008
 8001bf0:	20000010 	.word	0x20000010
 8001bf4:	696b      	ldr	r3, [r5, #20]
 8001bf6:	b19b      	cbz	r3, 8001c20 <HAL_RCC_OscConfig+0x29c>
 8001bf8:	f8d4 3094 	ldr.w	r3, [r4, #148]	@ 0x94
 8001bfc:	f043 0301 	orr.w	r3, r3, #1
 8001c00:	f8c4 3094 	str.w	r3, [r4, #148]	@ 0x94
 8001c04:	f7fe fdb2 	bl	800076c <HAL_GetTick>
 8001c08:	4607      	mov	r7, r0
 8001c0a:	f8d4 3094 	ldr.w	r3, [r4, #148]	@ 0x94
 8001c0e:	079a      	lsls	r2, r3, #30
 8001c10:	f53f af48 	bmi.w	8001aa4 <HAL_RCC_OscConfig+0x120>
 8001c14:	f7fe fdaa 	bl	800076c <HAL_GetTick>
 8001c18:	1bc0      	subs	r0, r0, r7
 8001c1a:	2802      	cmp	r0, #2
 8001c1c:	d9f5      	bls.n	8001c0a <HAL_RCC_OscConfig+0x286>
 8001c1e:	e755      	b.n	8001acc <HAL_RCC_OscConfig+0x148>
 8001c20:	f8d4 3094 	ldr.w	r3, [r4, #148]	@ 0x94
 8001c24:	f023 0301 	bic.w	r3, r3, #1
 8001c28:	f8c4 3094 	str.w	r3, [r4, #148]	@ 0x94
 8001c2c:	f7fe fd9e 	bl	800076c <HAL_GetTick>
 8001c30:	4607      	mov	r7, r0
 8001c32:	f8d4 3094 	ldr.w	r3, [r4, #148]	@ 0x94
 8001c36:	079b      	lsls	r3, r3, #30
 8001c38:	f57f af34 	bpl.w	8001aa4 <HAL_RCC_OscConfig+0x120>
 8001c3c:	f7fe fd96 	bl	800076c <HAL_GetTick>
 8001c40:	1bc0      	subs	r0, r0, r7
 8001c42:	2802      	cmp	r0, #2
 8001c44:	d9f5      	bls.n	8001c32 <HAL_RCC_OscConfig+0x2ae>
 8001c46:	e741      	b.n	8001acc <HAL_RCC_OscConfig+0x148>
 8001c48:	6da3      	ldr	r3, [r4, #88]	@ 0x58
 8001c4a:	00df      	lsls	r7, r3, #3
 8001c4c:	d429      	bmi.n	8001ca2 <HAL_RCC_OscConfig+0x31e>
 8001c4e:	6da3      	ldr	r3, [r4, #88]	@ 0x58
 8001c50:	f043 5380 	orr.w	r3, r3, #268435456	@ 0x10000000
 8001c54:	65a3      	str	r3, [r4, #88]	@ 0x58
 8001c56:	6da3      	ldr	r3, [r4, #88]	@ 0x58
 8001c58:	f003 5380 	and.w	r3, r3, #268435456	@ 0x10000000
 8001c5c:	9301      	str	r3, [sp, #4]
 8001c5e:	9b01      	ldr	r3, [sp, #4]
 8001c60:	f04f 0801 	mov.w	r8, #1
 8001c64:	4f95      	ldr	r7, [pc, #596]	@ (8001ebc <HAL_RCC_OscConfig+0x538>)
 8001c66:	683b      	ldr	r3, [r7, #0]
 8001c68:	05d8      	lsls	r0, r3, #23
 8001c6a:	d51d      	bpl.n	8001ca8 <HAL_RCC_OscConfig+0x324>
 8001c6c:	68ab      	ldr	r3, [r5, #8]
 8001c6e:	2b01      	cmp	r3, #1
 8001c70:	d12b      	bne.n	8001cca <HAL_RCC_OscConfig+0x346>
 8001c72:	f8d4 3090 	ldr.w	r3, [r4, #144]	@ 0x90
 8001c76:	f043 0301 	orr.w	r3, r3, #1
 8001c7a:	f8c4 3090 	str.w	r3, [r4, #144]	@ 0x90
 8001c7e:	f7fe fd75 	bl	800076c <HAL_GetTick>
 8001c82:	f241 3988 	movw	r9, #5000	@ 0x1388
 8001c86:	4607      	mov	r7, r0
 8001c88:	f8d4 3090 	ldr.w	r3, [r4, #144]	@ 0x90
 8001c8c:	079a      	lsls	r2, r3, #30
 8001c8e:	d542      	bpl.n	8001d16 <HAL_RCC_OscConfig+0x392>
 8001c90:	f1b8 0f00 	cmp.w	r8, #0
 8001c94:	f43f af0a 	beq.w	8001aac <HAL_RCC_OscConfig+0x128>
 8001c98:	6da3      	ldr	r3, [r4, #88]	@ 0x58
 8001c9a:	f023 5380 	bic.w	r3, r3, #268435456	@ 0x10000000
 8001c9e:	65a3      	str	r3, [r4, #88]	@ 0x58
 8001ca0:	e704      	b.n	8001aac <HAL_RCC_OscConfig+0x128>
 8001ca2:	f04f 0800 	mov.w	r8, #0
 8001ca6:	e7dd      	b.n	8001c64 <HAL_RCC_OscConfig+0x2e0>
 8001ca8:	683b      	ldr	r3, [r7, #0]
 8001caa:	f443 7380 	orr.w	r3, r3, #256	@ 0x100
 8001cae:	603b      	str	r3, [r7, #0]
 8001cb0:	f7fe fd5c 	bl	800076c <HAL_GetTick>
 8001cb4:	4681      	mov	r9, r0
 8001cb6:	683b      	ldr	r3, [r7, #0]
 8001cb8:	05d9      	lsls	r1, r3, #23
 8001cba:	d4d7      	bmi.n	8001c6c <HAL_RCC_OscConfig+0x2e8>
 8001cbc:	f7fe fd56 	bl	800076c <HAL_GetTick>
 8001cc0:	eba0 0009 	sub.w	r0, r0, r9
 8001cc4:	2802      	cmp	r0, #2
 8001cc6:	d9f6      	bls.n	8001cb6 <HAL_RCC_OscConfig+0x332>
 8001cc8:	e700      	b.n	8001acc <HAL_RCC_OscConfig+0x148>
 8001cca:	2b05      	cmp	r3, #5
 8001ccc:	d106      	bne.n	8001cdc <HAL_RCC_OscConfig+0x358>
 8001cce:	f8d4 3090 	ldr.w	r3, [r4, #144]	@ 0x90
 8001cd2:	f043 0304 	orr.w	r3, r3, #4
 8001cd6:	f8c4 3090 	str.w	r3, [r4, #144]	@ 0x90
 8001cda:	e7ca      	b.n	8001c72 <HAL_RCC_OscConfig+0x2ee>
 8001cdc:	f8d4 2090 	ldr.w	r2, [r4, #144]	@ 0x90
 8001ce0:	f022 0201 	bic.w	r2, r2, #1
 8001ce4:	f8c4 2090 	str.w	r2, [r4, #144]	@ 0x90
 8001ce8:	f8d4 2090 	ldr.w	r2, [r4, #144]	@ 0x90
 8001cec:	f022 0204 	bic.w	r2, r2, #4
 8001cf0:	f8c4 2090 	str.w	r2, [r4, #144]	@ 0x90
 8001cf4:	2b00      	cmp	r3, #0
 8001cf6:	d1c2      	bne.n	8001c7e <HAL_RCC_OscConfig+0x2fa>
 8001cf8:	f7fe fd38 	bl	800076c <HAL_GetTick>
 8001cfc:	f241 3988 	movw	r9, #5000	@ 0x1388
 8001d00:	4607      	mov	r7, r0
 8001d02:	f8d4 3090 	ldr.w	r3, [r4, #144]	@ 0x90
 8001d06:	079b      	lsls	r3, r3, #30
 8001d08:	d5c2      	bpl.n	8001c90 <HAL_RCC_OscConfig+0x30c>
 8001d0a:	f7fe fd2f 	bl	800076c <HAL_GetTick>
 8001d0e:	1bc0      	subs	r0, r0, r7
 8001d10:	4548      	cmp	r0, r9
 8001d12:	d9f6      	bls.n	8001d02 <HAL_RCC_OscConfig+0x37e>
 8001d14:	e6da      	b.n	8001acc <HAL_RCC_OscConfig+0x148>
 8001d16:	f7fe fd29 	bl	800076c <HAL_GetTick>
 8001d1a:	1bc0      	subs	r0, r0, r7
 8001d1c:	4548      	cmp	r0, r9
 8001d1e:	d9b3      	bls.n	8001c88 <HAL_RCC_OscConfig+0x304>
 8001d20:	e6d4      	b.n	8001acc <HAL_RCC_OscConfig+0x148>
 8001d22:	6a6b      	ldr	r3, [r5, #36]	@ 0x24
 8001d24:	b19b      	cbz	r3, 8001d4e <HAL_RCC_OscConfig+0x3ca>
 8001d26:	f8d4 3098 	ldr.w	r3, [r4, #152]	@ 0x98
 8001d2a:	f043 0301 	orr.w	r3, r3, #1
 8001d2e:	f8c4 3098 	str.w	r3, [r4, #152]	@ 0x98
 8001d32:	f7fe fd1b 	bl	800076c <HAL_GetTick>
 8001d36:	4607      	mov	r7, r0
 8001d38:	f8d4 3098 	ldr.w	r3, [r4, #152]	@ 0x98
 8001d3c:	0799      	lsls	r1, r3, #30
 8001d3e:	f53f aeb9 	bmi.w	8001ab4 <HAL_RCC_OscConfig+0x130>
 8001d42:	f7fe fd13 	bl	800076c <HAL_GetTick>
 8001d46:	1bc0      	subs	r0, r0, r7
 8001d48:	2802      	cmp	r0, #2
 8001d4a:	d9f5      	bls.n	8001d38 <HAL_RCC_OscConfig+0x3b4>
 8001d4c:	e6be      	b.n	8001acc <HAL_RCC_OscConfig+0x148>
 8001d4e:	f8d4 3098 	ldr.w	r3, [r4, #152]	@ 0x98
 8001d52:	f023 0301 	bic.w	r3, r3, #1
 8001d56:	f8c4 3098 	str.w	r3, [r4, #152]	@ 0x98
 8001d5a:	f7fe fd07 	bl	800076c <HAL_GetTick>
 8001d5e:	4607      	mov	r7, r0
 8001d60:	f8d4 3098 	ldr.w	r3, [r4, #152]	@ 0x98
 8001d64:	079a      	lsls	r2, r3, #30
 8001d66:	f57f aea5 	bpl.w	8001ab4 <HAL_RCC_OscConfig+0x130>
 8001d6a:	f7fe fcff 	bl	800076c <HAL_GetTick>
 8001d6e:	1bc0      	subs	r0, r0, r7
 8001d70:	2802      	cmp	r0, #2
 8001d72:	d9f5      	bls.n	8001d60 <HAL_RCC_OscConfig+0x3dc>
 8001d74:	e6aa      	b.n	8001acc <HAL_RCC_OscConfig+0x148>
 8001d76:	2b02      	cmp	r3, #2
 8001d78:	f040 8088 	bne.w	8001e8c <HAL_RCC_OscConfig+0x508>
 8001d7c:	68e3      	ldr	r3, [r4, #12]
 8001d7e:	6aea      	ldr	r2, [r5, #44]	@ 0x2c
 8001d80:	f003 0103 	and.w	r1, r3, #3
 8001d84:	4291      	cmp	r1, r2
 8001d86:	d122      	bne.n	8001dce <HAL_RCC_OscConfig+0x44a>
 8001d88:	6b29      	ldr	r1, [r5, #48]	@ 0x30
 8001d8a:	f003 0270 	and.w	r2, r3, #112	@ 0x70
 8001d8e:	3901      	subs	r1, #1
 8001d90:	ebb2 1f01 	cmp.w	r2, r1, lsl #4
 8001d94:	d11b      	bne.n	8001dce <HAL_RCC_OscConfig+0x44a>
 8001d96:	6b69      	ldr	r1, [r5, #52]	@ 0x34
 8001d98:	f403 42fe 	and.w	r2, r3, #32512	@ 0x7f00
 8001d9c:	ebb2 2f01 	cmp.w	r2, r1, lsl #8
 8001da0:	d115      	bne.n	8001dce <HAL_RCC_OscConfig+0x44a>
 8001da2:	6ba9      	ldr	r1, [r5, #56]	@ 0x38
 8001da4:	f003 4278 	and.w	r2, r3, #4160749568	@ 0xf8000000
 8001da8:	ebb2 6fc1 	cmp.w	r2, r1, lsl #27
 8001dac:	d10f      	bne.n	8001dce <HAL_RCC_OscConfig+0x44a>
 8001dae:	6bea      	ldr	r2, [r5, #60]	@ 0x3c
 8001db0:	0852      	lsrs	r2, r2, #1
 8001db2:	f403 01c0 	and.w	r1, r3, #6291456	@ 0x600000
 8001db6:	3a01      	subs	r2, #1
 8001db8:	ebb1 5f42 	cmp.w	r1, r2, lsl #21
 8001dbc:	d107      	bne.n	8001dce <HAL_RCC_OscConfig+0x44a>
 8001dbe:	6c2a      	ldr	r2, [r5, #64]	@ 0x40
 8001dc0:	0852      	lsrs	r2, r2, #1
 8001dc2:	f003 63c0 	and.w	r3, r3, #100663296	@ 0x6000000
 8001dc6:	3a01      	subs	r2, #1
 8001dc8:	ebb3 6f42 	cmp.w	r3, r2, lsl #25
 8001dcc:	d045      	beq.n	8001e5a <HAL_RCC_OscConfig+0x4d6>
 8001dce:	2e0c      	cmp	r6, #12
 8001dd0:	f43f ae3e 	beq.w	8001a50 <HAL_RCC_OscConfig+0xcc>
 8001dd4:	6823      	ldr	r3, [r4, #0]
 8001dd6:	015b      	lsls	r3, r3, #5
 8001dd8:	f53f ae3a 	bmi.w	8001a50 <HAL_RCC_OscConfig+0xcc>
 8001ddc:	6823      	ldr	r3, [r4, #0]
 8001dde:	f023 7380 	bic.w	r3, r3, #16777216	@ 0x1000000
 8001de2:	6023      	str	r3, [r4, #0]
 8001de4:	f7fe fcc2 	bl	800076c <HAL_GetTick>
 8001de8:	4606      	mov	r6, r0
 8001dea:	6823      	ldr	r3, [r4, #0]
 8001dec:	019f      	lsls	r7, r3, #6
 8001dee:	d42e      	bmi.n	8001e4e <HAL_RCC_OscConfig+0x4ca>
 8001df0:	68e2      	ldr	r2, [r4, #12]
 8001df2:	4b33      	ldr	r3, [pc, #204]	@ (8001ec0 <HAL_RCC_OscConfig+0x53c>)
 8001df4:	4013      	ands	r3, r2
 8001df6:	6aea      	ldr	r2, [r5, #44]	@ 0x2c
 8001df8:	4313      	orrs	r3, r2
 8001dfa:	6b6a      	ldr	r2, [r5, #52]	@ 0x34
 8001dfc:	ea43 2302 	orr.w	r3, r3, r2, lsl #8
 8001e00:	6baa      	ldr	r2, [r5, #56]	@ 0x38
 8001e02:	ea43 63c2 	orr.w	r3, r3, r2, lsl #27
 8001e06:	6b2a      	ldr	r2, [r5, #48]	@ 0x30
 8001e08:	3a01      	subs	r2, #1
 8001e0a:	ea43 1302 	orr.w	r3, r3, r2, lsl #4
 8001e0e:	6bea      	ldr	r2, [r5, #60]	@ 0x3c
 8001e10:	0852      	lsrs	r2, r2, #1
 8001e12:	3a01      	subs	r2, #1
 8001e14:	ea43 5342 	orr.w	r3, r3, r2, lsl #21
 8001e18:	6c2a      	ldr	r2, [r5, #64]	@ 0x40
 8001e1a:	0852      	lsrs	r2, r2, #1
 8001e1c:	3a01      	subs	r2, #1
 8001e1e:	ea43 6342 	orr.w	r3, r3, r2, lsl #25
 8001e22:	60e3      	str	r3, [r4, #12]
 8001e24:	6823      	ldr	r3, [r4, #0]
 8001e26:	f043 7380 	orr.w	r3, r3, #16777216	@ 0x1000000
 8001e2a:	6023      	str	r3, [r4, #0]
 8001e2c:	68e3      	ldr	r3, [r4, #12]
 8001e2e:	f043 7380 	orr.w	r3, r3, #16777216	@ 0x1000000
 8001e32:	60e3      	str	r3, [r4, #12]
 8001e34:	f7fe fc9a 	bl	800076c <HAL_GetTick>
 8001e38:	4605      	mov	r5, r0
 8001e3a:	6823      	ldr	r3, [r4, #0]
 8001e3c:	0198      	lsls	r0, r3, #6
 8001e3e:	f53f ae3d 	bmi.w	8001abc <HAL_RCC_OscConfig+0x138>
 8001e42:	f7fe fc93 	bl	800076c <HAL_GetTick>
 8001e46:	1b40      	subs	r0, r0, r5
 8001e48:	2802      	cmp	r0, #2
 8001e4a:	d9f6      	bls.n	8001e3a <HAL_RCC_OscConfig+0x4b6>
 8001e4c:	e63e      	b.n	8001acc <HAL_RCC_OscConfig+0x148>
 8001e4e:	f7fe fc8d 	bl	800076c <HAL_GetTick>
 8001e52:	1b80      	subs	r0, r0, r6
 8001e54:	2802      	cmp	r0, #2
 8001e56:	d9c8      	bls.n	8001dea <HAL_RCC_OscConfig+0x466>
 8001e58:	e638      	b.n	8001acc <HAL_RCC_OscConfig+0x148>
 8001e5a:	6823      	ldr	r3, [r4, #0]
 8001e5c:	0199      	lsls	r1, r3, #6
 8001e5e:	f53f ae2d 	bmi.w	8001abc <HAL_RCC_OscConfig+0x138>
 8001e62:	6823      	ldr	r3, [r4, #0]
 8001e64:	f043 7380 	orr.w	r3, r3, #16777216	@ 0x1000000
 8001e68:	6023      	str	r3, [r4, #0]
 8001e6a:	68e3      	ldr	r3, [r4, #12]
 8001e6c:	f043 7380 	orr.w	r3, r3, #16777216	@ 0x1000000
 8001e70:	60e3      	str	r3, [r4, #12]
 8001e72:	f7fe fc7b 	bl	800076c <HAL_GetTick>
 8001e76:	4605      	mov	r5, r0
 8001e78:	6823      	ldr	r3, [r4, #0]
 8001e7a:	019a      	lsls	r2, r3, #6
 8001e7c:	f53f ae1e 	bmi.w	8001abc <HAL_RCC_OscConfig+0x138>
 8001e80:	f7fe fc74 	bl	800076c <HAL_GetTick>
 8001e84:	1b40      	subs	r0, r0, r5
 8001e86:	2802      	cmp	r0, #2
 8001e88:	d9f6      	bls.n	8001e78 <HAL_RCC_OscConfig+0x4f4>
 8001e8a:	e61f      	b.n	8001acc <HAL_RCC_OscConfig+0x148>
 8001e8c:	2e0c      	cmp	r6, #12
 8001e8e:	f43f addf 	beq.w	8001a50 <HAL_RCC_OscConfig+0xcc>
 8001e92:	6823      	ldr	r3, [r4, #0]
 8001e94:	f023 7380 	bic.w	r3, r3, #16777216	@ 0x1000000
 8001e98:	6023      	str	r3, [r4, #0]
 8001e9a:	f7fe fc67 	bl	800076c <HAL_GetTick>
 8001e9e:	4605      	mov	r5, r0
 8001ea0:	6823      	ldr	r3, [r4, #0]
 8001ea2:	019b      	lsls	r3, r3, #6
 8001ea4:	d404      	bmi.n	8001eb0 <HAL_RCC_OscConfig+0x52c>
 8001ea6:	68e2      	ldr	r2, [r4, #12]
 8001ea8:	4b06      	ldr	r3, [pc, #24]	@ (8001ec4 <HAL_RCC_OscConfig+0x540>)
 8001eaa:	4013      	ands	r3, r2
 8001eac:	60e3      	str	r3, [r4, #12]
 8001eae:	e605      	b.n	8001abc <HAL_RCC_OscConfig+0x138>
 8001eb0:	f7fe fc5c 	bl	800076c <HAL_GetTick>
 8001eb4:	1b40      	subs	r0, r0, r5
 8001eb6:	2802      	cmp	r0, #2
 8001eb8:	d9f2      	bls.n	8001ea0 <HAL_RCC_OscConfig+0x51c>
 8001eba:	e607      	b.n	8001acc <HAL_RCC_OscConfig+0x148>
 8001ebc:	40007000 	.word	0x40007000
 8001ec0:	019d808c 	.word	0x019d808c
 8001ec4:	feeefffc 	.word	0xfeeefffc

08001ec8 <HAL_RCC_ClockConfig>:
 8001ec8:	e92d 41f0 	stmdb	sp!, {r4, r5, r6, r7, r8, lr}
 8001ecc:	460d      	mov	r5, r1
 8001ece:	4604      	mov	r4, r0
 8001ed0:	b910      	cbnz	r0, 8001ed8 <HAL_RCC_ClockConfig+0x10>
 8001ed2:	2001      	movs	r0, #1
 8001ed4:	e8bd 81f0 	ldmia.w	sp!, {r4, r5, r6, r7, r8, pc}
 8001ed8:	4a4b      	ldr	r2, [pc, #300]	@ (8002008 <HAL_RCC_ClockConfig+0x140>)
 8001eda:	6813      	ldr	r3, [r2, #0]
 8001edc:	f003 0307 	and.w	r3, r3, #7
 8001ee0:	428b      	cmp	r3, r1
 8001ee2:	d32c      	bcc.n	8001f3e <HAL_RCC_ClockConfig+0x76>
 8001ee4:	6821      	ldr	r1, [r4, #0]
 8001ee6:	0788      	lsls	r0, r1, #30
 8001ee8:	d434      	bmi.n	8001f54 <HAL_RCC_ClockConfig+0x8c>
 8001eea:	07c9      	lsls	r1, r1, #31
 8001eec:	d43f      	bmi.n	8001f6e <HAL_RCC_ClockConfig+0xa6>
 8001eee:	6821      	ldr	r1, [r4, #0]
 8001ef0:	078a      	lsls	r2, r1, #30
 8001ef2:	d468      	bmi.n	8001fc6 <HAL_RCC_ClockConfig+0xfe>
 8001ef4:	4a44      	ldr	r2, [pc, #272]	@ (8002008 <HAL_RCC_ClockConfig+0x140>)
 8001ef6:	6813      	ldr	r3, [r2, #0]
 8001ef8:	f003 0307 	and.w	r3, r3, #7
 8001efc:	42ab      	cmp	r3, r5
 8001efe:	d86f      	bhi.n	8001fe0 <HAL_RCC_ClockConfig+0x118>
 8001f00:	f011 0f04 	tst.w	r1, #4
 8001f04:	4d41      	ldr	r5, [pc, #260]	@ (800200c <HAL_RCC_ClockConfig+0x144>)
 8001f06:	d177      	bne.n	8001ff8 <HAL_RCC_ClockConfig+0x130>
 8001f08:	070b      	lsls	r3, r1, #28
 8001f0a:	d506      	bpl.n	8001f1a <HAL_RCC_ClockConfig+0x52>
 8001f0c:	68ab      	ldr	r3, [r5, #8]
 8001f0e:	6922      	ldr	r2, [r4, #16]
 8001f10:	f423 5360 	bic.w	r3, r3, #14336	@ 0x3800
 8001f14:	ea43 03c2 	orr.w	r3, r3, r2, lsl #3
 8001f18:	60ab      	str	r3, [r5, #8]
 8001f1a:	f7ff fce5 	bl	80018e8 <HAL_RCC_GetSysClockFreq>
 8001f1e:	68ab      	ldr	r3, [r5, #8]
 8001f20:	4a3b      	ldr	r2, [pc, #236]	@ (8002010 <HAL_RCC_ClockConfig+0x148>)
 8001f22:	f3c3 1303 	ubfx	r3, r3, #4, #4
 8001f26:	e8bd 41f0 	ldmia.w	sp!, {r4, r5, r6, r7, r8, lr}
 8001f2a:	5cd3      	ldrb	r3, [r2, r3]
 8001f2c:	f003 031f 	and.w	r3, r3, #31
 8001f30:	40d8      	lsrs	r0, r3
 8001f32:	4b38      	ldr	r3, [pc, #224]	@ (8002014 <HAL_RCC_ClockConfig+0x14c>)
 8001f34:	6018      	str	r0, [r3, #0]
 8001f36:	4b38      	ldr	r3, [pc, #224]	@ (8002018 <HAL_RCC_ClockConfig+0x150>)
 8001f38:	6818      	ldr	r0, [r3, #0]
 8001f3a:	f7fe bbd5 	b.w	80006e8 <HAL_InitTick>
 8001f3e:	6813      	ldr	r3, [r2, #0]
 8001f40:	f023 0307 	bic.w	r3, r3, #7
 8001f44:	430b      	orrs	r3, r1
 8001f46:	6013      	str	r3, [r2, #0]
 8001f48:	6813      	ldr	r3, [r2, #0]
 8001f4a:	f003 0307 	and.w	r3, r3, #7
 8001f4e:	428b      	cmp	r3, r1
 8001f50:	d1bf      	bne.n	8001ed2 <HAL_RCC_ClockConfig+0xa>
 8001f52:	e7c7      	b.n	8001ee4 <HAL_RCC_ClockConfig+0x1c>
 8001f54:	4a2d      	ldr	r2, [pc, #180]	@ (800200c <HAL_RCC_ClockConfig+0x144>)
 8001f56:	68a0      	ldr	r0, [r4, #8]
 8001f58:	6893      	ldr	r3, [r2, #8]
 8001f5a:	f003 03f0 	and.w	r3, r3, #240	@ 0xf0
 8001f5e:	4298      	cmp	r0, r3
 8001f60:	bf81      	itttt	hi
 8001f62:	6893      	ldrhi	r3, [r2, #8]
 8001f64:	f023 03f0 	bichi.w	r3, r3, #240	@ 0xf0
 8001f68:	4303      	orrhi	r3, r0
 8001f6a:	6093      	strhi	r3, [r2, #8]
 8001f6c:	e7bd      	b.n	8001eea <HAL_RCC_ClockConfig+0x22>
 8001f6e:	6862      	ldr	r2, [r4, #4]
 8001f70:	4e26      	ldr	r6, [pc, #152]	@ (800200c <HAL_RCC_ClockConfig+0x144>)
 8001f72:	2a03      	cmp	r2, #3
 8001f74:	6833      	ldr	r3, [r6, #0]
 8001f76:	d11a      	bne.n	8001fae <HAL_RCC_ClockConfig+0xe6>
 8001f78:	f013 7f00 	tst.w	r3, #33554432	@ 0x2000000
 8001f7c:	d0a9      	beq.n	8001ed2 <HAL_RCC_ClockConfig+0xa>
 8001f7e:	68b3      	ldr	r3, [r6, #8]
 8001f80:	f023 0303 	bic.w	r3, r3, #3
 8001f84:	4313      	orrs	r3, r2
 8001f86:	60b3      	str	r3, [r6, #8]
 8001f88:	f7fe fbf0 	bl	800076c <HAL_GetTick>
 8001f8c:	f241 3888 	movw	r8, #5000	@ 0x1388
 8001f90:	4607      	mov	r7, r0
 8001f92:	68b3      	ldr	r3, [r6, #8]
 8001f94:	6862      	ldr	r2, [r4, #4]
 8001f96:	f003 030c 	and.w	r3, r3, #12
 8001f9a:	ebb3 0f82 	cmp.w	r3, r2, lsl #2
 8001f9e:	d0a6      	beq.n	8001eee <HAL_RCC_ClockConfig+0x26>
 8001fa0:	f7fe fbe4 	bl	800076c <HAL_GetTick>
 8001fa4:	1bc0      	subs	r0, r0, r7
 8001fa6:	4540      	cmp	r0, r8
 8001fa8:	d9f3      	bls.n	8001f92 <HAL_RCC_ClockConfig+0xca>
 8001faa:	2003      	movs	r0, #3
 8001fac:	e792      	b.n	8001ed4 <HAL_RCC_ClockConfig+0xc>
 8001fae:	2a02      	cmp	r2, #2
 8001fb0:	d102      	bne.n	8001fb8 <HAL_RCC_ClockConfig+0xf0>
 8001fb2:	f413 3f00 	tst.w	r3, #131072	@ 0x20000
 8001fb6:	e7e1      	b.n	8001f7c <HAL_RCC_ClockConfig+0xb4>
 8001fb8:	b912      	cbnz	r2, 8001fc0 <HAL_RCC_ClockConfig+0xf8>
 8001fba:	f013 0f02 	tst.w	r3, #2
 8001fbe:	e7dd      	b.n	8001f7c <HAL_RCC_ClockConfig+0xb4>
 8001fc0:	f413 6f80 	tst.w	r3, #1024	@ 0x400
 8001fc4:	e7da      	b.n	8001f7c <HAL_RCC_ClockConfig+0xb4>
 8001fc6:	4a11      	ldr	r2, [pc, #68]	@ (800200c <HAL_RCC_ClockConfig+0x144>)
 8001fc8:	68a0      	ldr	r0, [r4, #8]
 8001fca:	6893      	ldr	r3, [r2, #8]
 8001fcc:	f003 03f0 	and.w	r3, r3, #240	@ 0xf0
 8001fd0:	4298      	cmp	r0, r3
 8001fd2:	bf3f      	itttt	cc
 8001fd4:	6893      	ldrcc	r3, [r2, #8]
 8001fd6:	f023 03f0 	biccc.w	r3, r3, #240	@ 0xf0
 8001fda:	4303      	orrcc	r3, r0
 8001fdc:	6093      	strcc	r3, [r2, #8]
 8001fde:	e789      	b.n	8001ef4 <HAL_RCC_ClockConfig+0x2c>
 8001fe0:	6813      	ldr	r3, [r2, #0]
 8001fe2:	f023 0307 	bic.w	r3, r3, #7
 8001fe6:	432b      	orrs	r3, r5
 8001fe8:	6013      	str	r3, [r2, #0]
 8001fea:	6813      	ldr	r3, [r2, #0]
 8001fec:	f003 0307 	and.w	r3, r3, #7
 8001ff0:	42ab      	cmp	r3, r5
 8001ff2:	f47f af6e 	bne.w	8001ed2 <HAL_RCC_ClockConfig+0xa>
 8001ff6:	e783      	b.n	8001f00 <HAL_RCC_ClockConfig+0x38>
 8001ff8:	68ab      	ldr	r3, [r5, #8]
 8001ffa:	68e2      	ldr	r2, [r4, #12]
 8001ffc:	f423 63e0 	bic.w	r3, r3, #1792	@ 0x700
 8002000:	4313      	orrs	r3, r2
 8002002:	60ab      	str	r3, [r5, #8]
 8002004:	e780      	b.n	8001f08 <HAL_RCC_ClockConfig+0x40>
 8002006:	bf00      	nop
 8002008:	40022000 	.word	0x40022000
 800200c:	40021000 	.word	0x40021000
 8002010:	08002494 	.word	0x08002494
 8002014:	20000008 	.word	0x20000008
 8002018:	20000010 	.word	0x20000010

0800201c <RCCEx_PLLSAI1_Config>:
 800201c:	b5f8      	push	{r3, r4, r5, r6, r7, lr}
 800201e:	4c41      	ldr	r4, [pc, #260]	@ (8002124 <RCCEx_PLLSAI1_Config+0x108>)
 8002020:	68e3      	ldr	r3, [r4, #12]
 8002022:	079b      	lsls	r3, r3, #30
 8002024:	4605      	mov	r5, r0
 8002026:	460e      	mov	r6, r1
 8002028:	6800      	ldr	r0, [r0, #0]
 800202a:	d028      	beq.n	800207e <RCCEx_PLLSAI1_Config+0x62>
 800202c:	68e3      	ldr	r3, [r4, #12]
 800202e:	f003 0303 	and.w	r3, r3, #3
 8002032:	4283      	cmp	r3, r0
 8002034:	d13a      	bne.n	80020ac <RCCEx_PLLSAI1_Config+0x90>
 8002036:	2b00      	cmp	r3, #0
 8002038:	d038      	beq.n	80020ac <RCCEx_PLLSAI1_Config+0x90>
 800203a:	68e3      	ldr	r3, [r4, #12]
 800203c:	686a      	ldr	r2, [r5, #4]
 800203e:	f3c3 1302 	ubfx	r3, r3, #4, #3
 8002042:	3301      	adds	r3, #1
 8002044:	4293      	cmp	r3, r2
 8002046:	d131      	bne.n	80020ac <RCCEx_PLLSAI1_Config+0x90>
 8002048:	6823      	ldr	r3, [r4, #0]
 800204a:	f023 6380 	bic.w	r3, r3, #67108864	@ 0x4000000
 800204e:	6023      	str	r3, [r4, #0]
 8002050:	f7fe fb8c 	bl	800076c <HAL_GetTick>
 8002054:	4607      	mov	r7, r0
 8002056:	6823      	ldr	r3, [r4, #0]
 8002058:	011a      	lsls	r2, r3, #4
 800205a:	d430      	bmi.n	80020be <RCCEx_PLLSAI1_Config+0xa2>
 800205c:	68aa      	ldr	r2, [r5, #8]
 800205e:	0212      	lsls	r2, r2, #8
 8002060:	b3a6      	cbz	r6, 80020cc <RCCEx_PLLSAI1_Config+0xb0>
 8002062:	2e01      	cmp	r6, #1
 8002064:	6923      	ldr	r3, [r4, #16]
 8002066:	d14b      	bne.n	8002100 <RCCEx_PLLSAI1_Config+0xe4>
 8002068:	6929      	ldr	r1, [r5, #16]
 800206a:	f423 03c0 	bic.w	r3, r3, #6291456	@ 0x600000
 800206e:	0849      	lsrs	r1, r1, #1
 8002070:	f423 43fe 	bic.w	r3, r3, #32512	@ 0x7f00
 8002074:	3901      	subs	r1, #1
 8002076:	4313      	orrs	r3, r2
 8002078:	ea43 5341 	orr.w	r3, r3, r1, lsl #21
 800207c:	e02f      	b.n	80020de <RCCEx_PLLSAI1_Config+0xc2>
 800207e:	2802      	cmp	r0, #2
 8002080:	d010      	beq.n	80020a4 <RCCEx_PLLSAI1_Config+0x88>
 8002082:	2803      	cmp	r0, #3
 8002084:	d014      	beq.n	80020b0 <RCCEx_PLLSAI1_Config+0x94>
 8002086:	2801      	cmp	r0, #1
 8002088:	d110      	bne.n	80020ac <RCCEx_PLLSAI1_Config+0x90>
 800208a:	6823      	ldr	r3, [r4, #0]
 800208c:	079f      	lsls	r7, r3, #30
 800208e:	d51c      	bpl.n	80020ca <RCCEx_PLLSAI1_Config+0xae>
 8002090:	68e3      	ldr	r3, [r4, #12]
 8002092:	686a      	ldr	r2, [r5, #4]
 8002094:	f023 0373 	bic.w	r3, r3, #115	@ 0x73
 8002098:	3a01      	subs	r2, #1
 800209a:	4303      	orrs	r3, r0
 800209c:	ea43 1302 	orr.w	r3, r3, r2, lsl #4
 80020a0:	60e3      	str	r3, [r4, #12]
 80020a2:	e7d1      	b.n	8002048 <RCCEx_PLLSAI1_Config+0x2c>
 80020a4:	6823      	ldr	r3, [r4, #0]
 80020a6:	f413 6f80 	tst.w	r3, #1024	@ 0x400
 80020aa:	d1f1      	bne.n	8002090 <RCCEx_PLLSAI1_Config+0x74>
 80020ac:	2001      	movs	r0, #1
 80020ae:	e00c      	b.n	80020ca <RCCEx_PLLSAI1_Config+0xae>
 80020b0:	6823      	ldr	r3, [r4, #0]
 80020b2:	0399      	lsls	r1, r3, #14
 80020b4:	d4ec      	bmi.n	8002090 <RCCEx_PLLSAI1_Config+0x74>
 80020b6:	6823      	ldr	r3, [r4, #0]
 80020b8:	f413 2f80 	tst.w	r3, #262144	@ 0x40000
 80020bc:	e7f5      	b.n	80020aa <RCCEx_PLLSAI1_Config+0x8e>
 80020be:	f7fe fb55 	bl	800076c <HAL_GetTick>
 80020c2:	1bc0      	subs	r0, r0, r7
 80020c4:	2802      	cmp	r0, #2
 80020c6:	d9c6      	bls.n	8002056 <RCCEx_PLLSAI1_Config+0x3a>
 80020c8:	2003      	movs	r0, #3
 80020ca:	bdf8      	pop	{r3, r4, r5, r6, r7, pc}
 80020cc:	6921      	ldr	r1, [r4, #16]
 80020ce:	68eb      	ldr	r3, [r5, #12]
 80020d0:	ea42 63c3 	orr.w	r3, r2, r3, lsl #27
 80020d4:	f021 4278 	bic.w	r2, r1, #4160749568	@ 0xf8000000
 80020d8:	f422 42fe 	bic.w	r2, r2, #32512	@ 0x7f00
 80020dc:	4313      	orrs	r3, r2
 80020de:	6123      	str	r3, [r4, #16]
 80020e0:	6823      	ldr	r3, [r4, #0]
 80020e2:	f043 6380 	orr.w	r3, r3, #67108864	@ 0x4000000
 80020e6:	6023      	str	r3, [r4, #0]
 80020e8:	f7fe fb40 	bl	800076c <HAL_GetTick>
 80020ec:	4606      	mov	r6, r0
 80020ee:	6823      	ldr	r3, [r4, #0]
 80020f0:	011b      	lsls	r3, r3, #4
 80020f2:	d510      	bpl.n	8002116 <RCCEx_PLLSAI1_Config+0xfa>
 80020f4:	6923      	ldr	r3, [r4, #16]
 80020f6:	69aa      	ldr	r2, [r5, #24]
 80020f8:	4313      	orrs	r3, r2
 80020fa:	6123      	str	r3, [r4, #16]
 80020fc:	2000      	movs	r0, #0
 80020fe:	e7e4      	b.n	80020ca <RCCEx_PLLSAI1_Config+0xae>
 8002100:	6969      	ldr	r1, [r5, #20]
 8002102:	f023 63c0 	bic.w	r3, r3, #100663296	@ 0x6000000
 8002106:	0849      	lsrs	r1, r1, #1
 8002108:	f423 43fe 	bic.w	r3, r3, #32512	@ 0x7f00
 800210c:	3901      	subs	r1, #1
 800210e:	4313      	orrs	r3, r2
 8002110:	ea43 6341 	orr.w	r3, r3, r1, lsl #25
 8002114:	e7e3      	b.n	80020de <RCCEx_PLLSAI1_Config+0xc2>
 8002116:	f7fe fb29 	bl	800076c <HAL_GetTick>
 800211a:	1b80      	subs	r0, r0, r6
 800211c:	2802      	cmp	r0, #2
 800211e:	d9e6      	bls.n	80020ee <RCCEx_PLLSAI1_Config+0xd2>
 8002120:	e7d2      	b.n	80020c8 <RCCEx_PLLSAI1_Config+0xac>
 8002122:	bf00      	nop
 8002124:	40021000 	.word	0x40021000

08002128 <HAL_RCCEx_PeriphCLKConfig>:
 8002128:	6803      	ldr	r3, [r0, #0]
 800212a:	e92d 43f7 	stmdb	sp!, {r0, r1, r2, r4, r5, r6, r7, r8, r9, lr}
 800212e:	051d      	lsls	r5, r3, #20
 8002130:	4604      	mov	r4, r0
 8002132:	f140 80fd 	bpl.w	8002330 <HAL_RCCEx_PeriphCLKConfig+0x208>
 8002136:	6c41      	ldr	r1, [r0, #68]	@ 0x44
 8002138:	f5b1 0f00 	cmp.w	r1, #8388608	@ 0x800000
 800213c:	f000 80ea 	beq.w	8002314 <HAL_RCCEx_PeriphCLKConfig+0x1ec>
 8002140:	f5b1 0f40 	cmp.w	r1, #12582912	@ 0xc00000
 8002144:	f000 80eb 	beq.w	800231e <HAL_RCCEx_PeriphCLKConfig+0x1f6>
 8002148:	2900      	cmp	r1, #0
 800214a:	f000 80f3 	beq.w	8002334 <HAL_RCCEx_PeriphCLKConfig+0x20c>
 800214e:	2601      	movs	r6, #1
 8002150:	6823      	ldr	r3, [r4, #0]
 8002152:	0398      	lsls	r0, r3, #14
 8002154:	d533      	bpl.n	80021be <HAL_RCCEx_PeriphCLKConfig+0x96>
 8002156:	4da5      	ldr	r5, [pc, #660]	@ (80023ec <HAL_RCCEx_PeriphCLKConfig+0x2c4>)
 8002158:	6dab      	ldr	r3, [r5, #88]	@ 0x58
 800215a:	00d9      	lsls	r1, r3, #3
 800215c:	f100 80f2 	bmi.w	8002344 <HAL_RCCEx_PeriphCLKConfig+0x21c>
 8002160:	6dab      	ldr	r3, [r5, #88]	@ 0x58
 8002162:	f043 5380 	orr.w	r3, r3, #268435456	@ 0x10000000
 8002166:	65ab      	str	r3, [r5, #88]	@ 0x58
 8002168:	6dab      	ldr	r3, [r5, #88]	@ 0x58
 800216a:	f003 5380 	and.w	r3, r3, #268435456	@ 0x10000000
 800216e:	9301      	str	r3, [sp, #4]
 8002170:	9b01      	ldr	r3, [sp, #4]
 8002172:	2701      	movs	r7, #1
 8002174:	f8df 8278 	ldr.w	r8, [pc, #632]	@ 80023f0 <HAL_RCCEx_PeriphCLKConfig+0x2c8>
 8002178:	f8d8 3000 	ldr.w	r3, [r8]
 800217c:	f443 7380 	orr.w	r3, r3, #256	@ 0x100
 8002180:	f8c8 3000 	str.w	r3, [r8]
 8002184:	f7fe faf2 	bl	800076c <HAL_GetTick>
 8002188:	4681      	mov	r9, r0
 800218a:	f8d8 3000 	ldr.w	r3, [r8]
 800218e:	05da      	lsls	r2, r3, #23
 8002190:	f140 80da 	bpl.w	8002348 <HAL_RCCEx_PeriphCLKConfig+0x220>
 8002194:	b976      	cbnz	r6, 80021b4 <HAL_RCCEx_PeriphCLKConfig+0x8c>
 8002196:	f8d5 2090 	ldr.w	r2, [r5, #144]	@ 0x90
 800219a:	6da3      	ldr	r3, [r4, #88]	@ 0x58
 800219c:	f412 7240 	ands.w	r2, r2, #768	@ 0x300
 80021a0:	f040 80db 	bne.w	800235a <HAL_RCCEx_PeriphCLKConfig+0x232>
 80021a4:	f8d5 3090 	ldr.w	r3, [r5, #144]	@ 0x90
 80021a8:	6da2      	ldr	r2, [r4, #88]	@ 0x58
 80021aa:	f423 7340 	bic.w	r3, r3, #768	@ 0x300
 80021ae:	4313      	orrs	r3, r2
 80021b0:	f8c5 3090 	str.w	r3, [r5, #144]	@ 0x90
 80021b4:	b11f      	cbz	r7, 80021be <HAL_RCCEx_PeriphCLKConfig+0x96>
 80021b6:	6dab      	ldr	r3, [r5, #88]	@ 0x58
 80021b8:	f023 5380 	bic.w	r3, r3, #268435456	@ 0x10000000
 80021bc:	65ab      	str	r3, [r5, #88]	@ 0x58
 80021be:	6823      	ldr	r3, [r4, #0]
 80021c0:	07d9      	lsls	r1, r3, #31
 80021c2:	d508      	bpl.n	80021d6 <HAL_RCCEx_PeriphCLKConfig+0xae>
 80021c4:	4989      	ldr	r1, [pc, #548]	@ (80023ec <HAL_RCCEx_PeriphCLKConfig+0x2c4>)
 80021c6:	6a20      	ldr	r0, [r4, #32]
 80021c8:	f8d1 2088 	ldr.w	r2, [r1, #136]	@ 0x88
 80021cc:	f022 0203 	bic.w	r2, r2, #3
 80021d0:	4302      	orrs	r2, r0
 80021d2:	f8c1 2088 	str.w	r2, [r1, #136]	@ 0x88
 80021d6:	079a      	lsls	r2, r3, #30
 80021d8:	d508      	bpl.n	80021ec <HAL_RCCEx_PeriphCLKConfig+0xc4>
 80021da:	4984      	ldr	r1, [pc, #528]	@ (80023ec <HAL_RCCEx_PeriphCLKConfig+0x2c4>)
 80021dc:	6a60      	ldr	r0, [r4, #36]	@ 0x24
 80021de:	f8d1 2088 	ldr.w	r2, [r1, #136]	@ 0x88
 80021e2:	f022 020c 	bic.w	r2, r2, #12
 80021e6:	4302      	orrs	r2, r0
 80021e8:	f8c1 2088 	str.w	r2, [r1, #136]	@ 0x88
 80021ec:	075f      	lsls	r7, r3, #29
 80021ee:	d508      	bpl.n	8002202 <HAL_RCCEx_PeriphCLKConfig+0xda>
 80021f0:	497e      	ldr	r1, [pc, #504]	@ (80023ec <HAL_RCCEx_PeriphCLKConfig+0x2c4>)
 80021f2:	6aa0      	ldr	r0, [r4, #40]	@ 0x28
 80021f4:	f8d1 2088 	ldr.w	r2, [r1, #136]	@ 0x88
 80021f8:	f022 0230 	bic.w	r2, r2, #48	@ 0x30
 80021fc:	4302      	orrs	r2, r0
 80021fe:	f8c1 2088 	str.w	r2, [r1, #136]	@ 0x88
 8002202:	069d      	lsls	r5, r3, #26
 8002204:	d508      	bpl.n	8002218 <HAL_RCCEx_PeriphCLKConfig+0xf0>
 8002206:	4979      	ldr	r1, [pc, #484]	@ (80023ec <HAL_RCCEx_PeriphCLKConfig+0x2c4>)
 8002208:	6ae0      	ldr	r0, [r4, #44]	@ 0x2c
 800220a:	f8d1 2088 	ldr.w	r2, [r1, #136]	@ 0x88
 800220e:	f422 6240 	bic.w	r2, r2, #3072	@ 0xc00
 8002212:	4302      	orrs	r2, r0
 8002214:	f8c1 2088 	str.w	r2, [r1, #136]	@ 0x88
 8002218:	0598      	lsls	r0, r3, #22
 800221a:	d508      	bpl.n	800222e <HAL_RCCEx_PeriphCLKConfig+0x106>
 800221c:	4973      	ldr	r1, [pc, #460]	@ (80023ec <HAL_RCCEx_PeriphCLKConfig+0x2c4>)
 800221e:	6be0      	ldr	r0, [r4, #60]	@ 0x3c
 8002220:	f8d1 2088 	ldr.w	r2, [r1, #136]	@ 0x88
 8002224:	f422 2240 	bic.w	r2, r2, #786432	@ 0xc0000
 8002228:	4302      	orrs	r2, r0
 800222a:	f8c1 2088 	str.w	r2, [r1, #136]	@ 0x88
 800222e:	0559      	lsls	r1, r3, #21
 8002230:	d508      	bpl.n	8002244 <HAL_RCCEx_PeriphCLKConfig+0x11c>
 8002232:	496e      	ldr	r1, [pc, #440]	@ (80023ec <HAL_RCCEx_PeriphCLKConfig+0x2c4>)
 8002234:	6c20      	ldr	r0, [r4, #64]	@ 0x40
 8002236:	f8d1 2088 	ldr.w	r2, [r1, #136]	@ 0x88
 800223a:	f422 1240 	bic.w	r2, r2, #3145728	@ 0x300000
 800223e:	4302      	orrs	r2, r0
 8002240:	f8c1 2088 	str.w	r2, [r1, #136]	@ 0x88
 8002244:	065a      	lsls	r2, r3, #25
 8002246:	d508      	bpl.n	800225a <HAL_RCCEx_PeriphCLKConfig+0x132>
 8002248:	4968      	ldr	r1, [pc, #416]	@ (80023ec <HAL_RCCEx_PeriphCLKConfig+0x2c4>)
 800224a:	6b20      	ldr	r0, [r4, #48]	@ 0x30
 800224c:	f8d1 2088 	ldr.w	r2, [r1, #136]	@ 0x88
 8002250:	f422 5240 	bic.w	r2, r2, #12288	@ 0x3000
 8002254:	4302      	orrs	r2, r0
 8002256:	f8c1 2088 	str.w	r2, [r1, #136]	@ 0x88
 800225a:	061f      	lsls	r7, r3, #24
 800225c:	d508      	bpl.n	8002270 <HAL_RCCEx_PeriphCLKConfig+0x148>
 800225e:	4963      	ldr	r1, [pc, #396]	@ (80023ec <HAL_RCCEx_PeriphCLKConfig+0x2c4>)
 8002260:	6b60      	ldr	r0, [r4, #52]	@ 0x34
 8002262:	f8d1 2088 	ldr.w	r2, [r1, #136]	@ 0x88
 8002266:	f422 4240 	bic.w	r2, r2, #49152	@ 0xc000
 800226a:	4302      	orrs	r2, r0
 800226c:	f8c1 2088 	str.w	r2, [r1, #136]	@ 0x88
 8002270:	05dd      	lsls	r5, r3, #23
 8002272:	d508      	bpl.n	8002286 <HAL_RCCEx_PeriphCLKConfig+0x15e>
 8002274:	495d      	ldr	r1, [pc, #372]	@ (80023ec <HAL_RCCEx_PeriphCLKConfig+0x2c4>)
 8002276:	6ba0      	ldr	r0, [r4, #56]	@ 0x38
 8002278:	f8d1 2088 	ldr.w	r2, [r1, #136]	@ 0x88
 800227c:	f422 3240 	bic.w	r2, r2, #196608	@ 0x30000
 8002280:	4302      	orrs	r2, r0
 8002282:	f8c1 2088 	str.w	r2, [r1, #136]	@ 0x88
 8002286:	0318      	lsls	r0, r3, #12
 8002288:	d510      	bpl.n	80022ac <HAL_RCCEx_PeriphCLKConfig+0x184>
 800228a:	4a58      	ldr	r2, [pc, #352]	@ (80023ec <HAL_RCCEx_PeriphCLKConfig+0x2c4>)
 800228c:	6ca1      	ldr	r1, [r4, #72]	@ 0x48
 800228e:	f8d2 3088 	ldr.w	r3, [r2, #136]	@ 0x88
 8002292:	f023 6340 	bic.w	r3, r3, #201326592	@ 0xc000000
 8002296:	430b      	orrs	r3, r1
 8002298:	f1b1 6f00 	cmp.w	r1, #134217728	@ 0x8000000
 800229c:	f8c2 3088 	str.w	r3, [r2, #136]	@ 0x88
 80022a0:	f040 8083 	bne.w	80023aa <HAL_RCCEx_PeriphCLKConfig+0x282>
 80022a4:	68d3      	ldr	r3, [r2, #12]
 80022a6:	f443 1380 	orr.w	r3, r3, #1048576	@ 0x100000
 80022aa:	60d3      	str	r3, [r2, #12]
 80022ac:	4637      	mov	r7, r6
 80022ae:	6823      	ldr	r3, [r4, #0]
 80022b0:	0359      	lsls	r1, r3, #13
 80022b2:	d50f      	bpl.n	80022d4 <HAL_RCCEx_PeriphCLKConfig+0x1ac>
 80022b4:	4a4d      	ldr	r2, [pc, #308]	@ (80023ec <HAL_RCCEx_PeriphCLKConfig+0x2c4>)
 80022b6:	6ce1      	ldr	r1, [r4, #76]	@ 0x4c
 80022b8:	f8d2 3088 	ldr.w	r3, [r2, #136]	@ 0x88
 80022bc:	f023 6340 	bic.w	r3, r3, #201326592	@ 0xc000000
 80022c0:	430b      	orrs	r3, r1
 80022c2:	f1b1 6f00 	cmp.w	r1, #134217728	@ 0x8000000
 80022c6:	f8c2 3088 	str.w	r3, [r2, #136]	@ 0x88
 80022ca:	d17b      	bne.n	80023c4 <HAL_RCCEx_PeriphCLKConfig+0x29c>
 80022cc:	68d3      	ldr	r3, [r2, #12]
 80022ce:	f443 1380 	orr.w	r3, r3, #1048576	@ 0x100000
 80022d2:	60d3      	str	r3, [r2, #12]
 80022d4:	463d      	mov	r5, r7
 80022d6:	6823      	ldr	r3, [r4, #0]
 80022d8:	045a      	lsls	r2, r3, #17
 80022da:	d50b      	bpl.n	80022f4 <HAL_RCCEx_PeriphCLKConfig+0x1cc>
 80022dc:	4943      	ldr	r1, [pc, #268]	@ (80023ec <HAL_RCCEx_PeriphCLKConfig+0x2c4>)
 80022de:	6d22      	ldr	r2, [r4, #80]	@ 0x50
 80022e0:	f8d1 3088 	ldr.w	r3, [r1, #136]	@ 0x88
 80022e4:	f023 5340 	bic.w	r3, r3, #805306368	@ 0x30000000
 80022e8:	4313      	orrs	r3, r2
 80022ea:	f1b2 5f80 	cmp.w	r2, #268435456	@ 0x10000000
 80022ee:	f8c1 3088 	str.w	r3, [r1, #136]	@ 0x88
 80022f2:	d073      	beq.n	80023dc <HAL_RCCEx_PeriphCLKConfig+0x2b4>
 80022f4:	4628      	mov	r0, r5
 80022f6:	6823      	ldr	r3, [r4, #0]
 80022f8:	041b      	lsls	r3, r3, #16
 80022fa:	d508      	bpl.n	800230e <HAL_RCCEx_PeriphCLKConfig+0x1e6>
 80022fc:	4a3b      	ldr	r2, [pc, #236]	@ (80023ec <HAL_RCCEx_PeriphCLKConfig+0x2c4>)
 80022fe:	6d61      	ldr	r1, [r4, #84]	@ 0x54
 8002300:	f8d2 3088 	ldr.w	r3, [r2, #136]	@ 0x88
 8002304:	f023 4380 	bic.w	r3, r3, #1073741824	@ 0x40000000
 8002308:	430b      	orrs	r3, r1
 800230a:	f8c2 3088 	str.w	r3, [r2, #136]	@ 0x88
 800230e:	b003      	add	sp, #12
 8002310:	e8bd 83f0 	ldmia.w	sp!, {r4, r5, r6, r7, r8, r9, pc}
 8002314:	4a35      	ldr	r2, [pc, #212]	@ (80023ec <HAL_RCCEx_PeriphCLKConfig+0x2c4>)
 8002316:	68d3      	ldr	r3, [r2, #12]
 8002318:	f443 3380 	orr.w	r3, r3, #65536	@ 0x10000
 800231c:	60d3      	str	r3, [r2, #12]
 800231e:	4a33      	ldr	r2, [pc, #204]	@ (80023ec <HAL_RCCEx_PeriphCLKConfig+0x2c4>)
 8002320:	6c61      	ldr	r1, [r4, #68]	@ 0x44
 8002322:	f8d2 3088 	ldr.w	r3, [r2, #136]	@ 0x88
 8002326:	f423 0340 	bic.w	r3, r3, #12582912	@ 0xc00000
 800232a:	430b      	orrs	r3, r1
 800232c:	f8c2 3088 	str.w	r3, [r2, #136]	@ 0x88
 8002330:	2600      	movs	r6, #0
 8002332:	e70d      	b.n	8002150 <HAL_RCCEx_PeriphCLKConfig+0x28>
 8002334:	3004      	adds	r0, #4
 8002336:	f7ff fe71 	bl	800201c <RCCEx_PLLSAI1_Config>
 800233a:	4606      	mov	r6, r0
 800233c:	2800      	cmp	r0, #0
 800233e:	f47f af07 	bne.w	8002150 <HAL_RCCEx_PeriphCLKConfig+0x28>
 8002342:	e7ec      	b.n	800231e <HAL_RCCEx_PeriphCLKConfig+0x1f6>
 8002344:	2700      	movs	r7, #0
 8002346:	e715      	b.n	8002174 <HAL_RCCEx_PeriphCLKConfig+0x4c>
 8002348:	f7fe fa10 	bl	800076c <HAL_GetTick>
 800234c:	eba0 0009 	sub.w	r0, r0, r9
 8002350:	2802      	cmp	r0, #2
 8002352:	f67f af1a 	bls.w	800218a <HAL_RCCEx_PeriphCLKConfig+0x62>
 8002356:	2603      	movs	r6, #3
 8002358:	e72c      	b.n	80021b4 <HAL_RCCEx_PeriphCLKConfig+0x8c>
 800235a:	429a      	cmp	r2, r3
 800235c:	d011      	beq.n	8002382 <HAL_RCCEx_PeriphCLKConfig+0x25a>
 800235e:	f8d5 3090 	ldr.w	r3, [r5, #144]	@ 0x90
 8002362:	f8d5 2090 	ldr.w	r2, [r5, #144]	@ 0x90
 8002366:	f442 3280 	orr.w	r2, r2, #65536	@ 0x10000
 800236a:	f8c5 2090 	str.w	r2, [r5, #144]	@ 0x90
 800236e:	f8d5 2090 	ldr.w	r2, [r5, #144]	@ 0x90
 8002372:	f423 7340 	bic.w	r3, r3, #768	@ 0x300
 8002376:	f422 3280 	bic.w	r2, r2, #65536	@ 0x10000
 800237a:	f8c5 2090 	str.w	r2, [r5, #144]	@ 0x90
 800237e:	f8c5 3090 	str.w	r3, [r5, #144]	@ 0x90
 8002382:	07db      	lsls	r3, r3, #31
 8002384:	f57f af0e 	bpl.w	80021a4 <HAL_RCCEx_PeriphCLKConfig+0x7c>
 8002388:	f7fe f9f0 	bl	800076c <HAL_GetTick>
 800238c:	f241 3988 	movw	r9, #5000	@ 0x1388
 8002390:	4680      	mov	r8, r0
 8002392:	f8d5 3090 	ldr.w	r3, [r5, #144]	@ 0x90
 8002396:	0798      	lsls	r0, r3, #30
 8002398:	f53f af04 	bmi.w	80021a4 <HAL_RCCEx_PeriphCLKConfig+0x7c>
 800239c:	f7fe f9e6 	bl	800076c <HAL_GetTick>
 80023a0:	eba0 0008 	sub.w	r0, r0, r8
 80023a4:	4548      	cmp	r0, r9
 80023a6:	d9f4      	bls.n	8002392 <HAL_RCCEx_PeriphCLKConfig+0x26a>
 80023a8:	e7d5      	b.n	8002356 <HAL_RCCEx_PeriphCLKConfig+0x22e>
 80023aa:	f1b1 6f80 	cmp.w	r1, #67108864	@ 0x4000000
 80023ae:	f47f af7d 	bne.w	80022ac <HAL_RCCEx_PeriphCLKConfig+0x184>
 80023b2:	2101      	movs	r1, #1
 80023b4:	1d20      	adds	r0, r4, #4
 80023b6:	f7ff fe31 	bl	800201c <RCCEx_PLLSAI1_Config>
 80023ba:	4607      	mov	r7, r0
 80023bc:	2800      	cmp	r0, #0
 80023be:	f43f af75 	beq.w	80022ac <HAL_RCCEx_PeriphCLKConfig+0x184>
 80023c2:	e774      	b.n	80022ae <HAL_RCCEx_PeriphCLKConfig+0x186>
 80023c4:	f1b1 6f80 	cmp.w	r1, #67108864	@ 0x4000000
 80023c8:	d184      	bne.n	80022d4 <HAL_RCCEx_PeriphCLKConfig+0x1ac>
 80023ca:	2101      	movs	r1, #1
 80023cc:	1d20      	adds	r0, r4, #4
 80023ce:	f7ff fe25 	bl	800201c <RCCEx_PLLSAI1_Config>
 80023d2:	4605      	mov	r5, r0
 80023d4:	2800      	cmp	r0, #0
 80023d6:	f43f af7d 	beq.w	80022d4 <HAL_RCCEx_PeriphCLKConfig+0x1ac>
 80023da:	e77c      	b.n	80022d6 <HAL_RCCEx_PeriphCLKConfig+0x1ae>
 80023dc:	2102      	movs	r1, #2
 80023de:	1d20      	adds	r0, r4, #4
 80023e0:	f7ff fe1c 	bl	800201c <RCCEx_PLLSAI1_Config>
 80023e4:	2800      	cmp	r0, #0
 80023e6:	d085      	beq.n	80022f4 <HAL_RCCEx_PeriphCLKConfig+0x1cc>
 80023e8:	e785      	b.n	80022f6 <HAL_RCCEx_PeriphCLKConfig+0x1ce>
 80023ea:	bf00      	nop
 80023ec:	40021000 	.word	0x40021000
 80023f0:	40007000 	.word	0x40007000

080023f4 <memset>:
 80023f4:	4402      	add	r2, r0
 80023f6:	4603      	mov	r3, r0
 80023f8:	4293      	cmp	r3, r2
 80023fa:	d100      	bne.n	80023fe <memset+0xa>
 80023fc:	4770      	bx	lr
 80023fe:	f803 1b01 	strb.w	r1, [r3], #1
 8002402:	e7f9      	b.n	80023f8 <memset+0x4>

08002404 <__libc_init_array>:
 8002404:	b570      	push	{r4, r5, r6, lr}
 8002406:	4d0d      	ldr	r5, [pc, #52]	@ (800243c <__libc_init_array+0x38>)
 8002408:	4c0d      	ldr	r4, [pc, #52]	@ (8002440 <__libc_init_array+0x3c>)
 800240a:	1b64      	subs	r4, r4, r5
 800240c:	10a4      	asrs	r4, r4, #2
 800240e:	2600      	movs	r6, #0
 8002410:	42a6      	cmp	r6, r4
 8002412:	d109      	bne.n	8002428 <__libc_init_array+0x24>
 8002414:	4d0b      	ldr	r5, [pc, #44]	@ (8002444 <__libc_init_array+0x40>)
 8002416:	4c0c      	ldr	r4, [pc, #48]	@ (8002448 <__libc_init_array+0x44>)
 8002418:	f000 f818 	bl	800244c <_init>
 800241c:	1b64      	subs	r4, r4, r5
 800241e:	10a4      	asrs	r4, r4, #2
 8002420:	2600      	movs	r6, #0
 8002422:	42a6      	cmp	r6, r4
 8002424:	d105      	bne.n	8002432 <__libc_init_array+0x2e>
 8002426:	bd70      	pop	{r4, r5, r6, pc}
 8002428:	f855 3b04 	ldr.w	r3, [r5], #4
 800242c:	4798      	blx	r3
 800242e:	3601      	adds	r6, #1
 8002430:	e7ee      	b.n	8002410 <__libc_init_array+0xc>
 8002432:	f855 3b04 	ldr.w	r3, [r5], #4
 8002436:	4798      	blx	r3
 8002438:	3601      	adds	r6, #1
 800243a:	e7f2      	b.n	8002422 <__libc_init_array+0x1e>
 800243c:	080024ac 	.word	0x080024ac
 8002440:	080024ac 	.word	0x080024ac
 8002444:	080024ac 	.word	0x080024ac
 8002448:	080024b0 	.word	0x080024b0

0800244c <_init>:
 800244c:	b5f8      	push	{r3, r4, r5, r6, r7, lr}
 800244e:	bf00      	nop
 8002450:	bcf8      	pop	{r3, r4, r5, r6, r7}
 8002452:	bc08      	pop	{r3}
 8002454:	469e      	mov	lr, r3
 8002456:	4770      	bx	lr

08002458 <_fini>:
 8002458:	b5f8      	push	{r3, r4, r5, r6, r7, lr}
 800245a:	bf00      	nop
 800245c:	bcf8      	pop	{r3, r4, r5, r6, r7}
 800245e:	bc08      	pop	{r3}
 8002460:	469e      	mov	lr, r3
 8002462:	4770      	bx	lr
